(lp1
(cnumpy.core.multiarray
scalar
p2
(cnumpy
dtype
p3
(S'S10'
I0
I1
tRp4
(I3
S'|'
NNNI10
I1
I0
tbS'GEO285+1.p'
tRp5
g2
(g3
(S'S531'
I0
I1
tRp6
(I3
S'|'
NNNI531
I1
I0
tbS"--definitional-cnf=24 --tstp-in --split-clauses=7 --split-reuse-defs --simul-paramod --forward-context-sr --destructive-er-aggressive --destructive-er --presat-simplify --prefer-initial-clauses -tKBO6 -winvfreqrank -c1 -Ginvfreqconjmax -F1 -s --delete-bad-limit=1024000000 -WSelectMaxLComplexAvoidPosPred -H'(4*RelevanceLevelWeight2(SimulateSOS,0,2,1,2,100,100,100,400,1.5,1.5,1),3*ConjectureGeneralSymbolWeight(PreferNonGoals,200,100,200,50,50,1,100,1.5,1.5,1),1*Clauseweight(PreferProcessed,1,1,1),1*FIFOWeight(PreferProcessed))'"
tRp7
g2
(g3
(S'f8'
I0
I1
tRp8
(I3
S'<'
NNNI-1
I-1
I0
tbS'\x14\xaeG\xe1z\x14\xee?'
tRp9
tp10
a(g2
(g3
(S'S10'
I0
I1
tRp11
(I3
S'|'
NNNI10
I1
I0
tbS'RNG060+2.p'
tRp12
g2
(g3
(S'S531'
I0
I1
tRp13
(I3
S'|'
NNNI531
I1
I0
tbS"--definitional-cnf=24 --tstp-in --split-clauses=7 --split-reuse-defs --simul-paramod --forward-context-sr --destructive-er-aggressive --destructive-er --presat-simplify --prefer-initial-clauses -tKBO6 -winvfreqrank -c1 -Ginvfreqconjmax -F1 -s --delete-bad-limit=1024000000 -WSelectMaxLComplexAvoidPosPred -H'(4*RelevanceLevelWeight2(SimulateSOS,0,2,1,2,100,100,100,400,1.5,1.5,1),3*ConjectureGeneralSymbolWeight(PreferNonGoals,200,100,200,50,50,1,100,1.5,1.5,1),1*Clauseweight(PreferProcessed,1,1,1),1*FIFOWeight(PreferProcessed))'"
tRp14
g2
(g8
S'\x81\x95C\x8bl\xe7\xef?'
tRp15
tp16
a(g2
(g3
(S'S10'
I0
I1
tRp17
(I3
S'|'
NNNI10
I1
I0
tbS'FLD002-3.p'
tRp18
g2
(g3
(S'S531'
I0
I1
tRp19
(I3
S'|'
NNNI531
I1
I0
tbS"--definitional-cnf=24 --tstp-in --split-clauses=7 --split-reuse-defs --simul-paramod --forward-context-sr --destructive-er-aggressive --destructive-er --presat-simplify --prefer-initial-clauses -tKBO6 -winvfreqrank -c1 -Ginvfreqconjmax -F1 -s --delete-bad-limit=1024000000 -WSelectMaxLComplexAvoidPosPred -H'(4*RelevanceLevelWeight2(SimulateSOS,0,2,1,2,100,100,100,400,1.5,1.5,1),3*ConjectureGeneralSymbolWeight(PreferNonGoals,200,100,200,50,50,1,100,1.5,1.5,1),1*Clauseweight(PreferProcessed,1,1,1),1*FIFOWeight(PreferProcessed))'"
tRp20
g2
(g8
S'\x12\x83\xc0\xca\xa1E\xe2?'
tRp21
tp22
a(g2
(g3
(S'S10'
I0
I1
tRp23
(I3
S'|'
NNNI10
I1
I0
tbS'SWW354+1.p'
tRp24
g2
(g3
(S'S531'
I0
I1
tRp25
(I3
S'|'
NNNI531
I1
I0
tbS"--definitional-cnf=24 --tstp-in --split-clauses=7 --split-reuse-defs --simul-paramod --forward-context-sr --destructive-er-aggressive --destructive-er --presat-simplify --prefer-initial-clauses -tKBO6 -winvfreqrank -c1 -Ginvfreqconjmax -F1 -s --delete-bad-limit=1024000000 -WSelectMaxLComplexAvoidPosPred -H'(4*RelevanceLevelWeight2(SimulateSOS,0,2,1,2,100,100,100,400,1.5,1.5,1),3*ConjectureGeneralSymbolWeight(PreferNonGoals,200,100,200,50,50,1,100,1.5,1.5,1),1*Clauseweight(PreferProcessed,1,1,1),1*FIFOWeight(PreferProcessed))'"
tRp26
g2
(g8
S'sh\x91\xed|_N@'
tRp27
tp28
a(g2
(g3
(S'S10'
I0
I1
tRp29
(I3
S'|'
NNNI10
I1
I0
tbS'LAT296+1.p'
tRp30
g2
(g3
(S'S531'
I0
I1
tRp31
(I3
S'|'
NNNI531
I1
I0
tbS"--definitional-cnf=24 --tstp-in --split-clauses=7 --split-reuse-defs --simul-paramod --forward-context-sr --destructive-er-aggressive --destructive-er --presat-simplify --prefer-initial-clauses -tKBO6 -winvfreqrank -c1 -Ginvfreqconjmax -F1 -s --delete-bad-limit=1024000000 -WSelectMaxLComplexAvoidPosPred -H'(4*RelevanceLevelWeight2(SimulateSOS,0,2,1,2,100,100,100,400,1.5,1.5,1),3*ConjectureGeneralSymbolWeight(PreferNonGoals,200,100,200,50,50,1,100,1.5,1.5,1),1*Clauseweight(PreferProcessed,1,1,1),1*FIFOWeight(PreferProcessed))'"
tRp32
g2
(g8
S'\x85\xebQ\xb8\x1eEX@'
tRp33
tp34
a(g2
(g3
(S'S10'
I0
I1
tRp35
(I3
S'|'
NNNI10
I1
I0
tbS'SWW372+1.p'
tRp36
g2
(g3
(S'S531'
I0
I1
tRp37
(I3
S'|'
NNNI531
I1
I0
tbS"--definitional-cnf=24 --tstp-in --split-clauses=7 --split-reuse-defs --simul-paramod --forward-context-sr --destructive-er-aggressive --destructive-er --presat-simplify --prefer-initial-clauses -tKBO6 -winvfreqrank -c1 -Ginvfreqconjmax -F1 -s --delete-bad-limit=1024000000 -WSelectMaxLComplexAvoidPosPred -H'(4*RelevanceLevelWeight2(SimulateSOS,0,2,1,2,100,100,100,400,1.5,1.5,1),3*ConjectureGeneralSymbolWeight(PreferNonGoals,200,100,200,50,50,1,100,1.5,1.5,1),1*Clauseweight(PreferProcessed,1,1,1),1*FIFOWeight(PreferProcessed))'"
tRp38
g2
(g8
S'\xecQ\xb8\x1e\x85\x8bO@'
tRp39
tp40
a(g2
(g3
(S'S10'
I0
I1
tRp41
(I3
S'|'
NNNI10
I1
I0
tbS'LCL050-1.p'
tRp42
g2
(g3
(S'S531'
I0
I1
tRp43
(I3
S'|'
NNNI531
I1
I0
tbS"--definitional-cnf=24 --tstp-in --split-clauses=7 --split-reuse-defs --simul-paramod --forward-context-sr --destructive-er-aggressive --destructive-er --presat-simplify --prefer-initial-clauses -tKBO6 -winvfreqrank -c1 -Ginvfreqconjmax -F1 -s --delete-bad-limit=1024000000 -WSelectMaxLComplexAvoidPosPred -H'(4*RelevanceLevelWeight2(SimulateSOS,0,2,1,2,100,100,100,400,1.5,1.5,1),3*ConjectureGeneralSymbolWeight(PreferNonGoals,200,100,200,50,50,1,100,1.5,1.5,1),1*Clauseweight(PreferProcessed,1,1,1),1*FIFOWeight(PreferProcessed))'"
tRp44
g2
(g8
S'\xdd$\x06\x81\x95\x0fd@'
tRp45
tp46
a(g2
(g3
(S'S10'
I0
I1
tRp47
(I3
S'|'
NNNI10
I1
I0
tbS'SWC345+1.p'
tRp48
g2
(g3
(S'S531'
I0
I1
tRp49
(I3
S'|'
NNNI531
I1
I0
tbS"--definitional-cnf=24 --tstp-in --split-clauses=7 --split-reuse-defs --simul-paramod --forward-context-sr --destructive-er-aggressive --destructive-er --presat-simplify --prefer-initial-clauses -tKBO6 -winvfreqrank -c1 -Ginvfreqconjmax -F1 -s --delete-bad-limit=1024000000 -WSelectMaxLComplexAvoidPosPred -H'(4*RelevanceLevelWeight2(SimulateSOS,0,2,1,2,100,100,100,400,1.5,1.5,1),3*ConjectureGeneralSymbolWeight(PreferNonGoals,200,100,200,50,50,1,100,1.5,1.5,1),1*Clauseweight(PreferProcessed,1,1,1),1*FIFOWeight(PreferProcessed))'"
tRp50
g2
(g8
S'\xfe\xd4x\xe9&Ud@'
tRp51
tp52
a(g2
(g3
(S'S10'
I0
I1
tRp53
(I3
S'|'
NNNI10
I1
I0
tbS'SWC329+1.p'
tRp54
g2
(g3
(S'S531'
I0
I1
tRp55
(I3
S'|'
NNNI531
I1
I0
tbS"--definitional-cnf=24 --tstp-in --split-clauses=7 --split-reuse-defs --simul-paramod --forward-context-sr --destructive-er-aggressive --destructive-er --presat-simplify --prefer-initial-clauses -tKBO6 -winvfreqrank -c1 -Ginvfreqconjmax -F1 -s --delete-bad-limit=1024000000 -WSelectMaxLComplexAvoidPosPred -H'(4*RelevanceLevelWeight2(SimulateSOS,0,2,1,2,100,100,100,400,1.5,1.5,1),3*ConjectureGeneralSymbolWeight(PreferNonGoals,200,100,200,50,50,1,100,1.5,1.5,1),1*Clauseweight(PreferProcessed,1,1,1),1*FIFOWeight(PreferProcessed))'"
tRp56
g2
(g8
S'm\xe7\xfb\xa9\xf1\xfec@'
tRp57
tp58
a(g2
(g3
(S'S10'
I0
I1
tRp59
(I3
S'|'
NNNI10
I1
I0
tbS'CSR041+3.p'
tRp60
g2
(g3
(S'S531'
I0
I1
tRp61
(I3
S'|'
NNNI531
I1
I0
tbS"--definitional-cnf=24 --tstp-in --split-clauses=7 --split-reuse-defs --simul-paramod --forward-context-sr --destructive-er-aggressive --destructive-er --presat-simplify --prefer-initial-clauses -tKBO6 -winvfreqrank -c1 -Ginvfreqconjmax -F1 -s --delete-bad-limit=1024000000 -WSelectMaxLComplexAvoidPosPred -H'(4*RelevanceLevelWeight2(SimulateSOS,0,2,1,2,100,100,100,400,1.5,1.5,1),3*ConjectureGeneralSymbolWeight(PreferNonGoals,200,100,200,50,50,1,100,1.5,1.5,1),1*Clauseweight(PreferProcessed,1,1,1),1*FIFOWeight(PreferProcessed))'"
tRp62
g2
(g8
S'\xf8S\xe3\xa5\x9b\xc4\xf8?'
tRp63
tp64
a(g2
(g3
(S'S10'
I0
I1
tRp65
(I3
S'|'
NNNI10
I1
I0
tbS'ROB005-1.p'
tRp66
g2
(g3
(S'S531'
I0
I1
tRp67
(I3
S'|'
NNNI531
I1
I0
tbS"--definitional-cnf=24 --tstp-in --split-clauses=7 --split-reuse-defs --simul-paramod --forward-context-sr --destructive-er-aggressive --destructive-er --presat-simplify --prefer-initial-clauses -tKBO6 -winvfreqrank -c1 -Ginvfreqconjmax -F1 -s --delete-bad-limit=1024000000 -WSelectMaxLComplexAvoidPosPred -H'(4*RelevanceLevelWeight2(SimulateSOS,0,2,1,2,100,100,100,400,1.5,1.5,1),3*ConjectureGeneralSymbolWeight(PreferNonGoals,200,100,200,50,50,1,100,1.5,1.5,1),1*Clauseweight(PreferProcessed,1,1,1),1*FIFOWeight(PreferProcessed))'"
tRp68
g2
(g8
S'\xd1"\xdb\xf9~j\x19@'
tRp69
tp70
a(g2
(g3
(S'S10'
I0
I1
tRp71
(I3
S'|'
NNNI10
I1
I0
tbS'CSR106+7.p'
tRp72
g2
(g3
(S'S531'
I0
I1
tRp73
(I3
S'|'
NNNI531
I1
I0
tbS"--definitional-cnf=24 --tstp-in --split-clauses=7 --split-reuse-defs --simul-paramod --forward-context-sr --destructive-er-aggressive --destructive-er --presat-simplify --prefer-initial-clauses -tKBO6 -winvfreqrank -c1 -Ginvfreqconjmax -F1 -s --delete-bad-limit=1024000000 -WSelectMaxLComplexAvoidPosPred -H'(4*RelevanceLevelWeight2(SimulateSOS,0,2,1,2,100,100,100,400,1.5,1.5,1),3*ConjectureGeneralSymbolWeight(PreferNonGoals,200,100,200,50,50,1,100,1.5,1.5,1),1*Clauseweight(PreferProcessed,1,1,1),1*FIFOWeight(PreferProcessed))'"
tRp74
g2
(g8
S'\x81\x95C\x8bl\xe7\x1c@'
tRp75
tp76
a(g2
(g3
(S'S10'
I0
I1
tRp77
(I3
S'|'
NNNI10
I1
I0
tbS'KLE019+1.p'
tRp78
g2
(g3
(S'S531'
I0
I1
tRp79
(I3
S'|'
NNNI531
I1
I0
tbS"--definitional-cnf=24 --tstp-in --split-clauses=7 --split-reuse-defs --simul-paramod --forward-context-sr --destructive-er-aggressive --destructive-er --presat-simplify --prefer-initial-clauses -tKBO6 -winvfreqrank -c1 -Ginvfreqconjmax -F1 -s --delete-bad-limit=1024000000 -WSelectMaxLComplexAvoidPosPred -H'(4*RelevanceLevelWeight2(SimulateSOS,0,2,1,2,100,100,100,400,1.5,1.5,1),3*ConjectureGeneralSymbolWeight(PreferNonGoals,200,100,200,50,50,1,100,1.5,1.5,1),1*Clauseweight(PreferProcessed,1,1,1),1*FIFOWeight(PreferProcessed))'"
tRp80
g2
(g8
S'o\x12\x83\xc0\xcakp@'
tRp81
tp82
a(g2
(g3
(S'S14'
I0
I1
tRp83
(I3
S'|'
NNNI14
I1
I0
tbS'SWV501-1.040.p'
tRp84
g2
(g3
(S'S531'
I0
I1
tRp85
(I3
S'|'
NNNI531
I1
I0
tbS"--definitional-cnf=24 --tstp-in --split-clauses=7 --split-reuse-defs --simul-paramod --forward-context-sr --destructive-er-aggressive --destructive-er --presat-simplify --prefer-initial-clauses -tKBO6 -winvfreqrank -c1 -Ginvfreqconjmax -F1 -s --delete-bad-limit=1024000000 -WSelectMaxLComplexAvoidPosPred -H'(4*RelevanceLevelWeight2(SimulateSOS,0,2,1,2,100,100,100,400,1.5,1.5,1),3*ConjectureGeneralSymbolWeight(PreferNonGoals,200,100,200,50,50,1,100,1.5,1.5,1),1*Clauseweight(PreferProcessed,1,1,1),1*FIFOWeight(PreferProcessed))'"
tRp86
g2
(g8
S'\xf4\xfd\xd4x\xe9\x02r@'
tRp87
tp88
a(g2
(g3
(S'S10'
I0
I1
tRp89
(I3
S'|'
NNNI10
I1
I0
tbS'SWW332+1.p'
tRp90
g2
(g3
(S'S531'
I0
I1
tRp91
(I3
S'|'
NNNI531
I1
I0
tbS"--definitional-cnf=24 --tstp-in --split-clauses=7 --split-reuse-defs --simul-paramod --forward-context-sr --destructive-er-aggressive --destructive-er --presat-simplify --prefer-initial-clauses -tKBO6 -winvfreqrank -c1 -Ginvfreqconjmax -F1 -s --delete-bad-limit=1024000000 -WSelectMaxLComplexAvoidPosPred -H'(4*RelevanceLevelWeight2(SimulateSOS,0,2,1,2,100,100,100,400,1.5,1.5,1),3*ConjectureGeneralSymbolWeight(PreferNonGoals,200,100,200,50,50,1,100,1.5,1.5,1),1*Clauseweight(PreferProcessed,1,1,1),1*FIFOWeight(PreferProcessed))'"
tRp92
g2
(g8
S'\x00\x00\x00\x00\x00\xe6p@'
tRp93
tp94
a(g2
(g3
(S'S10'
I0
I1
tRp95
(I3
S'|'
NNNI10
I1
I0
tbS'GEO279+1.p'
tRp96
g2
(g3
(S'S531'
I0
I1
tRp97
(I3
S'|'
NNNI531
I1
I0
tbS"--definitional-cnf=24 --tstp-in --split-clauses=7 --split-reuse-defs --simul-paramod --forward-context-sr --destructive-er-aggressive --destructive-er --presat-simplify --prefer-initial-clauses -tKBO6 -winvfreqrank -c1 -Ginvfreqconjmax -F1 -s --delete-bad-limit=1024000000 -WSelectMaxLComplexAvoidPosPred -H'(4*RelevanceLevelWeight2(SimulateSOS,0,2,1,2,100,100,100,400,1.5,1.5,1),3*ConjectureGeneralSymbolWeight(PreferNonGoals,200,100,200,50,50,1,100,1.5,1.5,1),1*Clauseweight(PreferProcessed,1,1,1),1*FIFOWeight(PreferProcessed))'"
tRp98
g2
(g8
S'\xfc\xa9\xf1\xd2M\xaa`@'
tRp99
tp100
a(g2
(g3
(S'S10'
I0
I1
tRp101
(I3
S'|'
NNNI10
I1
I0
tbS'SWC066-1.p'
tRp102
g2
(g3
(S'S531'
I0
I1
tRp103
(I3
S'|'
NNNI531
I1
I0
tbS"--definitional-cnf=24 --tstp-in --split-clauses=7 --split-reuse-defs --simul-paramod --forward-context-sr --destructive-er-aggressive --destructive-er --presat-simplify --prefer-initial-clauses -tKBO6 -winvfreqrank -c1 -Ginvfreqconjmax -F1 -s --delete-bad-limit=1024000000 -WSelectMaxLComplexAvoidPosPred -H'(4*RelevanceLevelWeight2(SimulateSOS,0,2,1,2,100,100,100,400,1.5,1.5,1),3*ConjectureGeneralSymbolWeight(PreferNonGoals,200,100,200,50,50,1,100,1.5,1.5,1),1*Clauseweight(PreferProcessed,1,1,1),1*FIFOWeight(PreferProcessed))'"
tRp104
g2
(g8
S'\xe9&1\x08\xac|]@'
tRp105
tp106
a(g2
(g3
(S'S10'
I0
I1
tRp107
(I3
S'|'
NNNI10
I1
I0
tbS'NUM297+1.p'
tRp108
g2
(g3
(S'S531'
I0
I1
tRp109
(I3
S'|'
NNNI531
I1
I0
tbS"--definitional-cnf=24 --tstp-in --split-clauses=7 --split-reuse-defs --simul-paramod --forward-context-sr --destructive-er-aggressive --destructive-er --presat-simplify --prefer-initial-clauses -tKBO6 -winvfreqrank -c1 -Ginvfreqconjmax -F1 -s --delete-bad-limit=1024000000 -WSelectMaxLComplexAvoidPosPred -H'(4*RelevanceLevelWeight2(SimulateSOS,0,2,1,2,100,100,100,400,1.5,1.5,1),3*ConjectureGeneralSymbolWeight(PreferNonGoals,200,100,200,50,50,1,100,1.5,1.5,1),1*Clauseweight(PreferProcessed,1,1,1),1*FIFOWeight(PreferProcessed))'"
tRp110
g2
(g8
S'1\x08\xac\x1cZLa@'
tRp111
tp112
a(g2
(g3
(S'S10'
I0
I1
tRp113
(I3
S'|'
NNNI10
I1
I0
tbS'ANA039-1.p'
tRp114
g2
(g3
(S'S531'
I0
I1
tRp115
(I3
S'|'
NNNI531
I1
I0
tbS"--definitional-cnf=24 --tstp-in --split-clauses=7 --split-reuse-defs --simul-paramod --forward-context-sr --destructive-er-aggressive --destructive-er --presat-simplify --prefer-initial-clauses -tKBO6 -winvfreqrank -c1 -Ginvfreqconjmax -F1 -s --delete-bad-limit=1024000000 -WSelectMaxLComplexAvoidPosPred -H'(4*RelevanceLevelWeight2(SimulateSOS,0,2,1,2,100,100,100,400,1.5,1.5,1),3*ConjectureGeneralSymbolWeight(PreferNonGoals,200,100,200,50,50,1,100,1.5,1.5,1),1*Clauseweight(PreferProcessed,1,1,1),1*FIFOWeight(PreferProcessed))'"
tRp116
g2
(g8
S'\xb4\xc8v\xbe\x9f\xa6k@'
tRp117
tp118
a(g2
(g3
(S'S10'
I0
I1
tRp119
(I3
S'|'
NNNI10
I1
I0
tbS'SCT043-1.p'
tRp120
g2
(g3
(S'S531'
I0
I1
tRp121
(I3
S'|'
NNNI531
I1
I0
tbS"--definitional-cnf=24 --tstp-in --split-clauses=7 --split-reuse-defs --simul-paramod --forward-context-sr --destructive-er-aggressive --destructive-er --presat-simplify --prefer-initial-clauses -tKBO6 -winvfreqrank -c1 -Ginvfreqconjmax -F1 -s --delete-bad-limit=1024000000 -WSelectMaxLComplexAvoidPosPred -H'(4*RelevanceLevelWeight2(SimulateSOS,0,2,1,2,100,100,100,400,1.5,1.5,1),3*ConjectureGeneralSymbolWeight(PreferNonGoals,200,100,200,50,50,1,100,1.5,1.5,1),1*Clauseweight(PreferProcessed,1,1,1),1*FIFOWeight(PreferProcessed))'"
tRp122
g2
(g8
S'\x00\x00\x00\x00\x00\\m@'
tRp123
tp124
a(g2
(g3
(S'S10'
I0
I1
tRp125
(I3
S'|'
NNNI10
I1
I0
tbS'SWV234+1.p'
tRp126
g2
(g3
(S'S531'
I0
I1
tRp127
(I3
S'|'
NNNI531
I1
I0
tbS"--definitional-cnf=24 --tstp-in --split-clauses=7 --split-reuse-defs --simul-paramod --forward-context-sr --destructive-er-aggressive --destructive-er --presat-simplify --prefer-initial-clauses -tKBO6 -winvfreqrank -c1 -Ginvfreqconjmax -F1 -s --delete-bad-limit=1024000000 -WSelectMaxLComplexAvoidPosPred -H'(4*RelevanceLevelWeight2(SimulateSOS,0,2,1,2,100,100,100,400,1.5,1.5,1),3*ConjectureGeneralSymbolWeight(PreferNonGoals,200,100,200,50,50,1,100,1.5,1.5,1),1*Clauseweight(PreferProcessed,1,1,1),1*FIFOWeight(PreferProcessed))'"
tRp128
g2
(g8
S'q=\n\xd7\xa3\xfcl@'
tRp129
tp130
a(g2
(g3
(S'S10'
I0
I1
tRp131
(I3
S'|'
NNNI10
I1
I0
tbS'SWB044+1.p'
tRp132
g2
(g3
(S'S531'
I0
I1
tRp133
(I3
S'|'
NNNI531
I1
I0
tbS"--definitional-cnf=24 --tstp-in --split-clauses=7 --split-reuse-defs --simul-paramod --forward-context-sr --destructive-er-aggressive --destructive-er --presat-simplify --prefer-initial-clauses -tKBO6 -winvfreqrank -c1 -Ginvfreqconjmax -F1 -s --delete-bad-limit=1024000000 -WSelectMaxLComplexAvoidPosPred -H'(4*RelevanceLevelWeight2(SimulateSOS,0,2,1,2,100,100,100,400,1.5,1.5,1),3*ConjectureGeneralSymbolWeight(PreferNonGoals,200,100,200,50,50,1,100,1.5,1.5,1),1*Clauseweight(PreferProcessed,1,1,1),1*FIFOWeight(PreferProcessed))'"
tRp134
g2
(g8
S'33333SJ@'
tRp135
tp136
a(g2
(g3
(S'S10'
I0
I1
tRp137
(I3
S'|'
NNNI10
I1
I0
tbS'ALG156+1.p'
tRp138
g2
(g3
(S'S531'
I0
I1
tRp139
(I3
S'|'
NNNI531
I1
I0
tbS"--definitional-cnf=24 --tstp-in --split-clauses=7 --split-reuse-defs --simul-paramod --forward-context-sr --destructive-er-aggressive --destructive-er --presat-simplify --prefer-initial-clauses -tKBO6 -winvfreqrank -c1 -Ginvfreqconjmax -F1 -s --delete-bad-limit=1024000000 -WSelectMaxLComplexAvoidPosPred -H'(4*RelevanceLevelWeight2(SimulateSOS,0,2,1,2,100,100,100,400,1.5,1.5,1),3*ConjectureGeneralSymbolWeight(PreferNonGoals,200,100,200,50,50,1,100,1.5,1.5,1),1*Clauseweight(PreferProcessed,1,1,1),1*FIFOWeight(PreferProcessed))'"
tRp140
g2
(g8
S'T\xe3\xa5\x9b\xc4\xe0D@'
tRp141
tp142
a(g2
(g3
(S'S10'
I0
I1
tRp143
(I3
S'|'
NNNI10
I1
I0
tbS'SYN450-1.p'
tRp144
g2
(g3
(S'S531'
I0
I1
tRp145
(I3
S'|'
NNNI531
I1
I0
tbS"--definitional-cnf=24 --tstp-in --split-clauses=7 --split-reuse-defs --simul-paramod --forward-context-sr --destructive-er-aggressive --destructive-er --presat-simplify --prefer-initial-clauses -tKBO6 -winvfreqrank -c1 -Ginvfreqconjmax -F1 -s --delete-bad-limit=1024000000 -WSelectMaxLComplexAvoidPosPred -H'(4*RelevanceLevelWeight2(SimulateSOS,0,2,1,2,100,100,100,400,1.5,1.5,1),3*ConjectureGeneralSymbolWeight(PreferNonGoals,200,100,200,50,50,1,100,1.5,1.5,1),1*Clauseweight(PreferProcessed,1,1,1),1*FIFOWeight(PreferProcessed))'"
tRp146
g2
(g8
S'd;\xdfO\x8d7>@'
tRp147
tp148
a(g2
(g3
(S'S10'
I0
I1
tRp149
(I3
S'|'
NNNI10
I1
I0
tbS'REL026-3.p'
tRp150
g2
(g3
(S'S531'
I0
I1
tRp151
(I3
S'|'
NNNI531
I1
I0
tbS"--definitional-cnf=24 --tstp-in --split-clauses=7 --split-reuse-defs --simul-paramod --forward-context-sr --destructive-er-aggressive --destructive-er --presat-simplify --prefer-initial-clauses -tKBO6 -winvfreqrank -c1 -Ginvfreqconjmax -F1 -s --delete-bad-limit=1024000000 -WSelectMaxLComplexAvoidPosPred -H'(4*RelevanceLevelWeight2(SimulateSOS,0,2,1,2,100,100,100,400,1.5,1.5,1),3*ConjectureGeneralSymbolWeight(PreferNonGoals,200,100,200,50,50,1,100,1.5,1.5,1),1*Clauseweight(PreferProcessed,1,1,1),1*FIFOWeight(PreferProcessed))'"
tRp152
g2
(g8
S'\xb8\x1e\x85\xebQX3@'
tRp153
tp154
a(g2
(g3
(S'S10'
I0
I1
tRp155
(I3
S'|'
NNNI10
I1
I0
tbS'FLD013-1.p'
tRp156
g2
(g3
(S'S531'
I0
I1
tRp157
(I3
S'|'
NNNI531
I1
I0
tbS"--definitional-cnf=24 --tstp-in --split-clauses=7 --split-reuse-defs --simul-paramod --forward-context-sr --destructive-er-aggressive --destructive-er --presat-simplify --prefer-initial-clauses -tKBO6 -winvfreqrank -c1 -Ginvfreqconjmax -F1 -s --delete-bad-limit=1024000000 -WSelectMaxLComplexAvoidPosPred -H'(4*RelevanceLevelWeight2(SimulateSOS,0,2,1,2,100,100,100,400,1.5,1.5,1),3*ConjectureGeneralSymbolWeight(PreferNonGoals,200,100,200,50,50,1,100,1.5,1.5,1),1*Clauseweight(PreferProcessed,1,1,1),1*FIFOWeight(PreferProcessed))'"
tRp158
g2
(g8
S'\xdb\xf9~j\xbc\x140@'
tRp159
tp160
a(g2
(g3
(S'S10'
I0
I1
tRp161
(I3
S'|'
NNNI10
I1
I0
tbS'SWW216+1.p'
tRp162
g2
(g3
(S'S531'
I0
I1
tRp163
(I3
S'|'
NNNI531
I1
I0
tbS"--definitional-cnf=24 --tstp-in --split-clauses=7 --split-reuse-defs --simul-paramod --forward-context-sr --destructive-er-aggressive --destructive-er --presat-simplify --prefer-initial-clauses -tKBO6 -winvfreqrank -c1 -Ginvfreqconjmax -F1 -s --delete-bad-limit=1024000000 -WSelectMaxLComplexAvoidPosPred -H'(4*RelevanceLevelWeight2(SimulateSOS,0,2,1,2,100,100,100,400,1.5,1.5,1),3*ConjectureGeneralSymbolWeight(PreferNonGoals,200,100,200,50,50,1,100,1.5,1.5,1),1*Clauseweight(PreferProcessed,1,1,1),1*FIFOWeight(PreferProcessed))'"
tRp164
g2
(g8
S'9\xb4\xc8v\xbe\x1f-@'
tRp165
tp166
a(g2
(g3
(S'S10'
I0
I1
tRp167
(I3
S'|'
NNNI10
I1
I0
tbS'GRP201-1.p'
tRp168
g2
(g3
(S'S434'
I0
I1
tRp169
(I3
S'|'
NNNI434
I1
I0
tbS"--definitional-cnf=24 -s --delete-bad-limit=1024000000 -F1 --simul-paramod -WSelectComplexAHP --split-clauses=4 --split-reuse-defs --forward-context-sr --destructive-er-aggressive --destructive-er -tKBO6 -winvfreqrank -c1 -Ginvfreq --prefer-initial-clauses --tstp-in -H'(10*Refinedweight(PreferGoals,1,2,2,2,0.5),10*Refinedweight(PreferNonGoals,2,1,2,2,2),3*OrientLMaxWeight(ConstPrio,2,1,2,1,1),2*ClauseWeightAge(ConstPrio,1,1,1,3))'"
tRp170
g2
(g8
S'\xecQ\xb8\x1e\x85\xeb\xe1?'
tRp171
tp172
a(g2
(g3
(S'S10'
I0
I1
tRp173
(I3
S'|'
NNNI10
I1
I0
tbS'CSR103+1.p'
tRp174
g2
(g3
(S'S434'
I0
I1
tRp175
(I3
S'|'
NNNI434
I1
I0
tbS"--definitional-cnf=24 -s --delete-bad-limit=1024000000 -F1 --simul-paramod -WSelectComplexAHP --split-clauses=4 --split-reuse-defs --forward-context-sr --destructive-er-aggressive --destructive-er -tKBO6 -winvfreqrank -c1 -Ginvfreq --prefer-initial-clauses --tstp-in -H'(10*Refinedweight(PreferGoals,1,2,2,2,0.5),10*Refinedweight(PreferNonGoals,2,1,2,2,2),3*OrientLMaxWeight(ConstPrio,2,1,2,1,1),2*ClauseWeightAge(ConstPrio,1,1,1,3))'"
tRp176
g2
(g8
S'\xb8\x1e\x85\xebQ\xb8\xe6?'
tRp177
tp178
a(g2
(g3
(S'S10'
I0
I1
tRp179
(I3
S'|'
NNNI10
I1
I0
tbS'CSR048+3.p'
tRp180
g2
(g3
(S'S434'
I0
I1
tRp181
(I3
S'|'
NNNI434
I1
I0
tbS"--definitional-cnf=24 -s --delete-bad-limit=1024000000 -F1 --simul-paramod -WSelectComplexAHP --split-clauses=4 --split-reuse-defs --forward-context-sr --destructive-er-aggressive --destructive-er -tKBO6 -winvfreqrank -c1 -Ginvfreq --prefer-initial-clauses --tstp-in -H'(10*Refinedweight(PreferGoals,1,2,2,2,0.5),10*Refinedweight(PreferNonGoals,2,1,2,2,2),3*OrientLMaxWeight(ConstPrio,2,1,2,1,1),2*ClauseWeightAge(ConstPrio,1,1,1,3))'"
tRp182
g2
(g8
S'\x12\x83\xc0\xca\xa1E\xe6?'
tRp183
tp184
a(g2
(g3
(S'S10'
I0
I1
tRp185
(I3
S'|'
NNNI10
I1
I0
tbS'SWV307-1.p'
tRp186
g2
(g3
(S'S434'
I0
I1
tRp187
(I3
S'|'
NNNI434
I1
I0
tbS"--definitional-cnf=24 -s --delete-bad-limit=1024000000 -F1 --simul-paramod -WSelectComplexAHP --split-clauses=4 --split-reuse-defs --forward-context-sr --destructive-er-aggressive --destructive-er -tKBO6 -winvfreqrank -c1 -Ginvfreq --prefer-initial-clauses --tstp-in -H'(10*Refinedweight(PreferGoals,1,2,2,2,0.5),10*Refinedweight(PreferNonGoals,2,1,2,2,2),3*OrientLMaxWeight(ConstPrio,2,1,2,1,1),2*ClauseWeightAge(ConstPrio,1,1,1,3))'"
tRp188
g2
(g8
S'\x02+\x87\x16\xd9\x9eU@'
tRp189
tp190
a(g2
(g3
(S'S10'
I0
I1
tRp191
(I3
S'|'
NNNI10
I1
I0
tbS'NUM425+1.p'
tRp192
g2
(g3
(S'S434'
I0
I1
tRp193
(I3
S'|'
NNNI434
I1
I0
tbS"--definitional-cnf=24 -s --delete-bad-limit=1024000000 -F1 --simul-paramod -WSelectComplexAHP --split-clauses=4 --split-reuse-defs --forward-context-sr --destructive-er-aggressive --destructive-er -tKBO6 -winvfreqrank -c1 -Ginvfreq --prefer-initial-clauses --tstp-in -H'(10*Refinedweight(PreferGoals,1,2,2,2,0.5),10*Refinedweight(PreferNonGoals,2,1,2,2,2),3*OrientLMaxWeight(ConstPrio,2,1,2,1,1),2*ClauseWeightAge(ConstPrio,1,1,1,3))'"
tRp194
g2
(g8
S'\xf4\xfd\xd4x\xe9\xeeQ@'
tRp195
tp196
a(g2
(g3
(S'S10'
I0
I1
tRp197
(I3
S'|'
NNNI10
I1
I0
tbS'NUM467+2.p'
tRp198
g2
(g3
(S'S434'
I0
I1
tRp199
(I3
S'|'
NNNI434
I1
I0
tbS"--definitional-cnf=24 -s --delete-bad-limit=1024000000 -F1 --simul-paramod -WSelectComplexAHP --split-clauses=4 --split-reuse-defs --forward-context-sr --destructive-er-aggressive --destructive-er -tKBO6 -winvfreqrank -c1 -Ginvfreq --prefer-initial-clauses --tstp-in -H'(10*Refinedweight(PreferGoals,1,2,2,2,0.5),10*Refinedweight(PreferNonGoals,2,1,2,2,2),3*OrientLMaxWeight(ConstPrio,2,1,2,1,1),2*ClauseWeightAge(ConstPrio,1,1,1,3))'"
tRp200
g2
(g8
S'\x14\xaeG\xe1z\xfcQ@'
tRp201
tp202
a(g2
(g3
(S'S10'
I0
I1
tRp203
(I3
S'|'
NNNI10
I1
I0
tbS'SWC052+1.p'
tRp204
g2
(g3
(S'S434'
I0
I1
tRp205
(I3
S'|'
NNNI434
I1
I0
tbS"--definitional-cnf=24 -s --delete-bad-limit=1024000000 -F1 --simul-paramod -WSelectComplexAHP --split-clauses=4 --split-reuse-defs --forward-context-sr --destructive-er-aggressive --destructive-er -tKBO6 -winvfreqrank -c1 -Ginvfreq --prefer-initial-clauses --tstp-in -H'(10*Refinedweight(PreferGoals,1,2,2,2,0.5),10*Refinedweight(PreferNonGoals,2,1,2,2,2),3*OrientLMaxWeight(ConstPrio,2,1,2,1,1),2*ClauseWeightAge(ConstPrio,1,1,1,3))'"
tRp206
g2
(g8
S'w\xbe\x9f\x1a/Qc@'
tRp207
tp208
a(g2
(g3
(S'S10'
I0
I1
tRp209
(I3
S'|'
NNNI10
I1
I0
tbS'RNG109+1.p'
tRp210
g2
(g3
(S'S434'
I0
I1
tRp211
(I3
S'|'
NNNI434
I1
I0
tbS"--definitional-cnf=24 -s --delete-bad-limit=1024000000 -F1 --simul-paramod -WSelectComplexAHP --split-clauses=4 --split-reuse-defs --forward-context-sr --destructive-er-aggressive --destructive-er -tKBO6 -winvfreqrank -c1 -Ginvfreq --prefer-initial-clauses --tstp-in -H'(10*Refinedweight(PreferGoals,1,2,2,2,0.5),10*Refinedweight(PreferNonGoals,2,1,2,2,2),3*OrientLMaxWeight(ConstPrio,2,1,2,1,1),2*ClauseWeightAge(ConstPrio,1,1,1,3))'"
tRp212
g2
(g8
S'y\xe9&1\x08\xb4c@'
tRp213
tp214
a(g2
(g3
(S'S10'
I0
I1
tRp215
(I3
S'|'
NNNI10
I1
I0
tbS'NUM444+6.p'
tRp216
g2
(g3
(S'S434'
I0
I1
tRp217
(I3
S'|'
NNNI434
I1
I0
tbS"--definitional-cnf=24 -s --delete-bad-limit=1024000000 -F1 --simul-paramod -WSelectComplexAHP --split-clauses=4 --split-reuse-defs --forward-context-sr --destructive-er-aggressive --destructive-er -tKBO6 -winvfreqrank -c1 -Ginvfreq --prefer-initial-clauses --tstp-in -H'(10*Refinedweight(PreferGoals,1,2,2,2,0.5),10*Refinedweight(PreferNonGoals,2,1,2,2,2),3*OrientLMaxWeight(ConstPrio,2,1,2,1,1),2*ClauseWeightAge(ConstPrio,1,1,1,3))'"
tRp218
g2
(g8
S'j\xbct\x93\x18tc@'
tRp219
tp220
a(g2
(g3
(S'S10'
I0
I1
tRp221
(I3
S'|'
NNNI10
I1
I0
tbS'SEU078+1.p'
tRp222
g2
(g3
(S'S434'
I0
I1
tRp223
(I3
S'|'
NNNI434
I1
I0
tbS"--definitional-cnf=24 -s --delete-bad-limit=1024000000 -F1 --simul-paramod -WSelectComplexAHP --split-clauses=4 --split-reuse-defs --forward-context-sr --destructive-er-aggressive --destructive-er -tKBO6 -winvfreqrank -c1 -Ginvfreq --prefer-initial-clauses --tstp-in -H'(10*Refinedweight(PreferGoals,1,2,2,2,0.5),10*Refinedweight(PreferNonGoals,2,1,2,2,2),3*OrientLMaxWeight(ConstPrio,2,1,2,1,1),2*ClauseWeightAge(ConstPrio,1,1,1,3))'"
tRp224
g2
(g8
S'm\xe7\xfb\xa9\xf1\xd2\x03@'
tRp225
tp226
a(g2
(g3
(S'S10'
I0
I1
tRp227
(I3
S'|'
NNNI10
I1
I0
tbS'SWC083+1.p'
tRp228
g2
(g3
(S'S434'
I0
I1
tRp229
(I3
S'|'
NNNI434
I1
I0
tbS"--definitional-cnf=24 -s --delete-bad-limit=1024000000 -F1 --simul-paramod -WSelectComplexAHP --split-clauses=4 --split-reuse-defs --forward-context-sr --destructive-er-aggressive --destructive-er -tKBO6 -winvfreqrank -c1 -Ginvfreq --prefer-initial-clauses --tstp-in -H'(10*Refinedweight(PreferGoals,1,2,2,2,0.5),10*Refinedweight(PreferNonGoals,2,1,2,2,2),3*OrientLMaxWeight(ConstPrio,2,1,2,1,1),2*ClauseWeightAge(ConstPrio,1,1,1,3))'"
tRp230
g2
(g8
S'\xa2E\xb6\xf3\xfd\xd4\xf2?'
tRp231
tp232
a(g2
(g3
(S'S10'
I0
I1
tRp233
(I3
S'|'
NNNI10
I1
I0
tbS'SET108-7.p'
tRp234
g2
(g3
(S'S434'
I0
I1
tRp235
(I3
S'|'
NNNI434
I1
I0
tbS"--definitional-cnf=24 -s --delete-bad-limit=1024000000 -F1 --simul-paramod -WSelectComplexAHP --split-clauses=4 --split-reuse-defs --forward-context-sr --destructive-er-aggressive --destructive-er -tKBO6 -winvfreqrank -c1 -Ginvfreq --prefer-initial-clauses --tstp-in -H'(10*Refinedweight(PreferGoals,1,2,2,2,0.5),10*Refinedweight(PreferNonGoals,2,1,2,2,2),3*OrientLMaxWeight(ConstPrio,2,1,2,1,1),2*ClauseWeightAge(ConstPrio,1,1,1,3))'"
tRp236
g2
(g8
S'\xd5x\xe9&1\x88\x1c@'
tRp237
tp238
a(g2
(g3
(S'S10'
I0
I1
tRp239
(I3
S'|'
NNNI10
I1
I0
tbS'SET607+3.p'
tRp240
g2
(g3
(S'S434'
I0
I1
tRp241
(I3
S'|'
NNNI434
I1
I0
tbS"--definitional-cnf=24 -s --delete-bad-limit=1024000000 -F1 --simul-paramod -WSelectComplexAHP --split-clauses=4 --split-reuse-defs --forward-context-sr --destructive-er-aggressive --destructive-er -tKBO6 -winvfreqrank -c1 -Ginvfreq --prefer-initial-clauses --tstp-in -H'(10*Refinedweight(PreferGoals,1,2,2,2,0.5),10*Refinedweight(PreferNonGoals,2,1,2,2,2),3*OrientLMaxWeight(ConstPrio,2,1,2,1,1),2*ClauseWeightAge(ConstPrio,1,1,1,3))'"
tRp242
g2
(g8
S'`\xe5\xd0"\xdb\x11p@'
tRp243
tp244
a(g2
(g3
(S'S10'
I0
I1
tRp245
(I3
S'|'
NNNI10
I1
I0
tbS'HAL001+2.p'
tRp246
g2
(g3
(S'S434'
I0
I1
tRp247
(I3
S'|'
NNNI434
I1
I0
tbS"--definitional-cnf=24 -s --delete-bad-limit=1024000000 -F1 --simul-paramod -WSelectComplexAHP --split-clauses=4 --split-reuse-defs --forward-context-sr --destructive-er-aggressive --destructive-er -tKBO6 -winvfreqrank -c1 -Ginvfreq --prefer-initial-clauses --tstp-in -H'(10*Refinedweight(PreferGoals,1,2,2,2,0.5),10*Refinedweight(PreferNonGoals,2,1,2,2,2),3*OrientLMaxWeight(ConstPrio,2,1,2,1,1),2*ClauseWeightAge(ConstPrio,1,1,1,3))'"
tRp248
g2
(g8
S'\x87\x16\xd9\xce\xf7\xd3q@'
tRp249
tp250
a(g2
(g3
(S'S10'
I0
I1
tRp251
(I3
S'|'
NNNI10
I1
I0
tbS'FLD060-1.p'
tRp252
g2
(g3
(S'S434'
I0
I1
tRp253
(I3
S'|'
NNNI434
I1
I0
tbS"--definitional-cnf=24 -s --delete-bad-limit=1024000000 -F1 --simul-paramod -WSelectComplexAHP --split-clauses=4 --split-reuse-defs --forward-context-sr --destructive-er-aggressive --destructive-er -tKBO6 -winvfreqrank -c1 -Ginvfreq --prefer-initial-clauses --tstp-in -H'(10*Refinedweight(PreferGoals,1,2,2,2,0.5),10*Refinedweight(PreferNonGoals,2,1,2,2,2),3*OrientLMaxWeight(ConstPrio,2,1,2,1,1),2*ClauseWeightAge(ConstPrio,1,1,1,3))'"
tRp254
g2
(g8
S'\x12\x83\xc0\xca\xa1\x15p@'
tRp255
tp256
a(g2
(g3
(S'S10'
I0
I1
tRp257
(I3
S'|'
NNNI10
I1
I0
tbS'SWC400+1.p'
tRp258
g2
(g3
(S'S434'
I0
I1
tRp259
(I3
S'|'
NNNI434
I1
I0
tbS"--definitional-cnf=24 -s --delete-bad-limit=1024000000 -F1 --simul-paramod -WSelectComplexAHP --split-clauses=4 --split-reuse-defs --forward-context-sr --destructive-er-aggressive --destructive-er -tKBO6 -winvfreqrank -c1 -Ginvfreq --prefer-initial-clauses --tstp-in -H'(10*Refinedweight(PreferGoals,1,2,2,2,0.5),10*Refinedweight(PreferNonGoals,2,1,2,2,2),3*OrientLMaxWeight(ConstPrio,2,1,2,1,1),2*ClauseWeightAge(ConstPrio,1,1,1,3))'"
tRp260
g2
(g8
S'\xbe\x9f\x1a/\xdd b@'
tRp261
tp262
a(g2
(g3
(S'S10'
I0
I1
tRp263
(I3
S'|'
NNNI10
I1
I0
tbS'SYN474-1.p'
tRp264
g2
(g3
(S'S434'
I0
I1
tRp265
(I3
S'|'
NNNI434
I1
I0
tbS"--definitional-cnf=24 -s --delete-bad-limit=1024000000 -F1 --simul-paramod -WSelectComplexAHP --split-clauses=4 --split-reuse-defs --forward-context-sr --destructive-er-aggressive --destructive-er -tKBO6 -winvfreqrank -c1 -Ginvfreq --prefer-initial-clauses --tstp-in -H'(10*Refinedweight(PreferGoals,1,2,2,2,0.5),10*Refinedweight(PreferNonGoals,2,1,2,2,2),3*OrientLMaxWeight(ConstPrio,2,1,2,1,1),2*ClauseWeightAge(ConstPrio,1,1,1,3))'"
tRp266
g2
(g8
S'\x14\xaeG\xe1z,]@'
tRp267
tp268
a(g2
(g3
(S'S10'
I0
I1
tRp269
(I3
S'|'
NNNI10
I1
I0
tbS'SYN468-1.p'
tRp270
g2
(g3
(S'S434'
I0
I1
tRp271
(I3
S'|'
NNNI434
I1
I0
tbS"--definitional-cnf=24 -s --delete-bad-limit=1024000000 -F1 --simul-paramod -WSelectComplexAHP --split-clauses=4 --split-reuse-defs --forward-context-sr --destructive-er-aggressive --destructive-er -tKBO6 -winvfreqrank -c1 -Ginvfreq --prefer-initial-clauses --tstp-in -H'(10*Refinedweight(PreferGoals,1,2,2,2,0.5),10*Refinedweight(PreferNonGoals,2,1,2,2,2),3*OrientLMaxWeight(ConstPrio,2,1,2,1,1),2*ClauseWeightAge(ConstPrio,1,1,1,3))'"
tRp272
g2
(g8
S'\x00\x00\x00\x00\x00\xf0^@'
tRp273
tp274
a(g2
(g3
(S'S10'
I0
I1
tRp275
(I3
S'|'
NNNI10
I1
I0
tbS'LCL224-1.p'
tRp276
g2
(g3
(S'S434'
I0
I1
tRp277
(I3
S'|'
NNNI434
I1
I0
tbS"--definitional-cnf=24 -s --delete-bad-limit=1024000000 -F1 --simul-paramod -WSelectComplexAHP --split-clauses=4 --split-reuse-defs --forward-context-sr --destructive-er-aggressive --destructive-er -tKBO6 -winvfreqrank -c1 -Ginvfreq --prefer-initial-clauses --tstp-in -H'(10*Refinedweight(PreferGoals,1,2,2,2,0.5),10*Refinedweight(PreferNonGoals,2,1,2,2,2),3*OrientLMaxWeight(ConstPrio,2,1,2,1,1),2*ClauseWeightAge(ConstPrio,1,1,1,3))'"
tRp278
g2
(g8
S'o\x12\x83\xc0\xca\xb9m@'
tRp279
tp280
a(g2
(g3
(S'S10'
I0
I1
tRp281
(I3
S'|'
NNNI10
I1
I0
tbS'CSR038+3.p'
tRp282
g2
(g3
(S'S434'
I0
I1
tRp283
(I3
S'|'
NNNI434
I1
I0
tbS"--definitional-cnf=24 -s --delete-bad-limit=1024000000 -F1 --simul-paramod -WSelectComplexAHP --split-clauses=4 --split-reuse-defs --forward-context-sr --destructive-er-aggressive --destructive-er -tKBO6 -winvfreqrank -c1 -Ginvfreq --prefer-initial-clauses --tstp-in -H'(10*Refinedweight(PreferGoals,1,2,2,2,0.5),10*Refinedweight(PreferNonGoals,2,1,2,2,2),3*OrientLMaxWeight(ConstPrio,2,1,2,1,1),2*ClauseWeightAge(ConstPrio,1,1,1,3))'"
tRp284
g2
(g8
S'\xe1z\x14\xaeGUl@'
tRp285
tp286
a(g2
(g3
(S'S10'
I0
I1
tRp287
(I3
S'|'
NNNI10
I1
I0
tbS'GRA002+2.p'
tRp288
g2
(g3
(S'S434'
I0
I1
tRp289
(I3
S'|'
NNNI434
I1
I0
tbS"--definitional-cnf=24 -s --delete-bad-limit=1024000000 -F1 --simul-paramod -WSelectComplexAHP --split-clauses=4 --split-reuse-defs --forward-context-sr --destructive-er-aggressive --destructive-er -tKBO6 -winvfreqrank -c1 -Ginvfreq --prefer-initial-clauses --tstp-in -H'(10*Refinedweight(PreferGoals,1,2,2,2,0.5),10*Refinedweight(PreferNonGoals,2,1,2,2,2),3*OrientLMaxWeight(ConstPrio,2,1,2,1,1),2*ClauseWeightAge(ConstPrio,1,1,1,3))'"
tRp290
g2
(g8
S'\x17\xd9\xce\xf7SKm@'
tRp291
tp292
a(g2
(g3
(S'S10'
I0
I1
tRp293
(I3
S'|'
NNNI10
I1
I0
tbS'SYN484-1.p'
tRp294
g2
(g3
(S'S434'
I0
I1
tRp295
(I3
S'|'
NNNI434
I1
I0
tbS"--definitional-cnf=24 -s --delete-bad-limit=1024000000 -F1 --simul-paramod -WSelectComplexAHP --split-clauses=4 --split-reuse-defs --forward-context-sr --destructive-er-aggressive --destructive-er -tKBO6 -winvfreqrank -c1 -Ginvfreq --prefer-initial-clauses --tstp-in -H'(10*Refinedweight(PreferGoals,1,2,2,2,0.5),10*Refinedweight(PreferNonGoals,2,1,2,2,2),3*OrientLMaxWeight(ConstPrio,2,1,2,1,1),2*ClauseWeightAge(ConstPrio,1,1,1,3))'"
tRp296
g2
(g8
S'\xcd\xcc\xcc\xcc\xcc<@@'
tRp297
tp298
a(g2
(g3
(S'S10'
I0
I1
tRp299
(I3
S'|'
NNNI10
I1
I0
tbS'SWV757-1.p'
tRp300
g2
(g3
(S'S434'
I0
I1
tRp301
(I3
S'|'
NNNI434
I1
I0
tbS"--definitional-cnf=24 -s --delete-bad-limit=1024000000 -F1 --simul-paramod -WSelectComplexAHP --split-clauses=4 --split-reuse-defs --forward-context-sr --destructive-er-aggressive --destructive-er -tKBO6 -winvfreqrank -c1 -Ginvfreq --prefer-initial-clauses --tstp-in -H'(10*Refinedweight(PreferGoals,1,2,2,2,0.5),10*Refinedweight(PreferNonGoals,2,1,2,2,2),3*OrientLMaxWeight(ConstPrio,2,1,2,1,1),2*ClauseWeightAge(ConstPrio,1,1,1,3))'"
tRp302
g2
(g8
S'b\x10X9\xb4\x88F@'
tRp303
tp304
a(g2
(g3
(S'S10'
I0
I1
tRp305
(I3
S'|'
NNNI10
I1
I0
tbS'NUM622+1.p'
tRp306
g2
(g3
(S'S434'
I0
I1
tRp307
(I3
S'|'
NNNI434
I1
I0
tbS"--definitional-cnf=24 -s --delete-bad-limit=1024000000 -F1 --simul-paramod -WSelectComplexAHP --split-clauses=4 --split-reuse-defs --forward-context-sr --destructive-er-aggressive --destructive-er -tKBO6 -winvfreqrank -c1 -Ginvfreq --prefer-initial-clauses --tstp-in -H'(10*Refinedweight(PreferGoals,1,2,2,2,0.5),10*Refinedweight(PreferNonGoals,2,1,2,2,2),3*OrientLMaxWeight(ConstPrio,2,1,2,1,1),2*ClauseWeightAge(ConstPrio,1,1,1,3))'"
tRp308
g2
(g8
S'\xbe\x9f\x1a/\xdd\xd4C@'
tRp309
tp310
a(g2
(g3
(S'S10'
I0
I1
tRp311
(I3
S'|'
NNNI10
I1
I0
tbS'CSR085+3.p'
tRp312
g2
(g3
(S'S434'
I0
I1
tRp313
(I3
S'|'
NNNI434
I1
I0
tbS"--definitional-cnf=24 -s --delete-bad-limit=1024000000 -F1 --simul-paramod -WSelectComplexAHP --split-clauses=4 --split-reuse-defs --forward-context-sr --destructive-er-aggressive --destructive-er -tKBO6 -winvfreqrank -c1 -Ginvfreq --prefer-initial-clauses --tstp-in -H'(10*Refinedweight(PreferGoals,1,2,2,2,0.5),10*Refinedweight(PreferNonGoals,2,1,2,2,2),3*OrientLMaxWeight(ConstPrio,2,1,2,1,1),2*ClauseWeightAge(ConstPrio,1,1,1,3))'"
tRp314
g2
(g8
S'\xf0\xa7\xc6K7\xc94@'
tRp315
tp316
a(g2
(g3
(S'S10'
I0
I1
tRp317
(I3
S'|'
NNNI10
I1
I0
tbS'LCL524+1.p'
tRp318
g2
(g3
(S'S434'
I0
I1
tRp319
(I3
S'|'
NNNI434
I1
I0
tbS"--definitional-cnf=24 -s --delete-bad-limit=1024000000 -F1 --simul-paramod -WSelectComplexAHP --split-clauses=4 --split-reuse-defs --forward-context-sr --destructive-er-aggressive --destructive-er -tKBO6 -winvfreqrank -c1 -Ginvfreq --prefer-initial-clauses --tstp-in -H'(10*Refinedweight(PreferGoals,1,2,2,2,0.5),10*Refinedweight(PreferNonGoals,2,1,2,2,2),3*OrientLMaxWeight(ConstPrio,2,1,2,1,1),2*ClauseWeightAge(ConstPrio,1,1,1,3))'"
tRp320
g2
(g8
S'\x85\xebQ\xb8\x1e\x05.@'
tRp321
tp322
a(g2
(g3
(S'S10'
I0
I1
tRp323
(I3
S'|'
NNNI10
I1
I0
tbS'SEU383+1.p'
tRp324
g2
(g3
(S'S434'
I0
I1
tRp325
(I3
S'|'
NNNI434
I1
I0
tbS"--definitional-cnf=24 -s --delete-bad-limit=1024000000 -F1 --simul-paramod -WSelectComplexAHP --split-clauses=4 --split-reuse-defs --forward-context-sr --destructive-er-aggressive --destructive-er -tKBO6 -winvfreqrank -c1 -Ginvfreq --prefer-initial-clauses --tstp-in -H'(10*Refinedweight(PreferGoals,1,2,2,2,0.5),10*Refinedweight(PreferNonGoals,2,1,2,2,2),3*OrientLMaxWeight(ConstPrio,2,1,2,1,1),2*ClauseWeightAge(ConstPrio,1,1,1,3))'"
tRp326
g2
(g8
S'\x7fj\xbct\x93X1@'
tRp327
tp328
a(g2
(g3
(S'S10'
I0
I1
tRp329
(I3
S'|'
NNNI10
I1
I0
tbS'RNG062+2.p'
tRp330
g2
(g3
(S'S430'
I0
I1
tRp331
(I3
S'|'
NNNI430
I1
I0
tbS"--definitional-cnf=24 -s --delete-bad-limit=1024000000 --simul-paramod -F1 -WSelectNewComplexAHP --forward-context-sr --split-aggressive --split-clauses=8 --split-reuse-defs --destructive-er-aggressive --destructive-er -tKBO6 -winvfreqrank -c1 -Ginvfreq --tstp-in -H'(10*PNRefinedweight(PreferGoals,1,1,1,2,2,2,0.5),10*PNRefinedweight(PreferNonGoals,2,1,1,1,2,2,2),5*OrientLMaxWeight(ConstPrio,2,1,2,1,1),1*FIFOWeight(ConstPrio))'"
tRp332
g2
(g8
S'\xd9\xce\xf7S\xe3\xa5\xef?'
tRp333
tp334
a(g2
(g3
(S'S10'
I0
I1
tRp335
(I3
S'|'
NNNI10
I1
I0
tbS'NUM612+3.p'
tRp336
g2
(g3
(S'S430'
I0
I1
tRp337
(I3
S'|'
NNNI430
I1
I0
tbS"--definitional-cnf=24 -s --delete-bad-limit=1024000000 --simul-paramod -F1 -WSelectNewComplexAHP --forward-context-sr --split-aggressive --split-clauses=8 --split-reuse-defs --destructive-er-aggressive --destructive-er -tKBO6 -winvfreqrank -c1 -Ginvfreq --tstp-in -H'(10*PNRefinedweight(PreferGoals,1,1,1,2,2,2,0.5),10*PNRefinedweight(PreferNonGoals,2,1,1,1,2,2,2),5*OrientLMaxWeight(ConstPrio,2,1,2,1,1),1*FIFOWeight(ConstPrio))'"
tRp338
g2
(g8
S"'1\x08\xac\x1cZ\xe0?"
tRp339
tp340
a(g2
(g3
(S'S10'
I0
I1
tRp341
(I3
S'|'
NNNI10
I1
I0
tbS'NUM451+6.p'
tRp342
g2
(g3
(S'S430'
I0
I1
tRp343
(I3
S'|'
NNNI430
I1
I0
tbS"--definitional-cnf=24 -s --delete-bad-limit=1024000000 --simul-paramod -F1 -WSelectNewComplexAHP --forward-context-sr --split-aggressive --split-clauses=8 --split-reuse-defs --destructive-er-aggressive --destructive-er -tKBO6 -winvfreqrank -c1 -Ginvfreq --tstp-in -H'(10*PNRefinedweight(PreferGoals,1,1,1,2,2,2,0.5),10*PNRefinedweight(PreferNonGoals,2,1,1,1,2,2,2),5*OrientLMaxWeight(ConstPrio,2,1,2,1,1),1*FIFOWeight(ConstPrio))'"
tRp344
g2
(g8
S'b\x10X9\xb4\xc8\xe2?'
tRp345
tp346
a(g2
(g3
(S'S10'
I0
I1
tRp347
(I3
S'|'
NNNI10
I1
I0
tbS'SWV814-1.p'
tRp348
g2
(g3
(S'S430'
I0
I1
tRp349
(I3
S'|'
NNNI430
I1
I0
tbS"--definitional-cnf=24 -s --delete-bad-limit=1024000000 --simul-paramod -F1 -WSelectNewComplexAHP --forward-context-sr --split-aggressive --split-clauses=8 --split-reuse-defs --destructive-er-aggressive --destructive-er -tKBO6 -winvfreqrank -c1 -Ginvfreq --tstp-in -H'(10*PNRefinedweight(PreferGoals,1,1,1,2,2,2,0.5),10*PNRefinedweight(PreferNonGoals,2,1,1,1,2,2,2),5*OrientLMaxWeight(ConstPrio,2,1,2,1,1),1*FIFOWeight(ConstPrio))'"
tRp350
g2
(g8
S'}?5^\xbaYV@'
tRp351
tp352
a(g2
(g3
(S'S10'
I0
I1
tRp353
(I3
S'|'
NNNI10
I1
I0
tbS'HWV003-1.p'
tRp354
g2
(g3
(S'S430'
I0
I1
tRp355
(I3
S'|'
NNNI430
I1
I0
tbS"--definitional-cnf=24 -s --delete-bad-limit=1024000000 --simul-paramod -F1 -WSelectNewComplexAHP --forward-context-sr --split-aggressive --split-clauses=8 --split-reuse-defs --destructive-er-aggressive --destructive-er -tKBO6 -winvfreqrank -c1 -Ginvfreq --tstp-in -H'(10*PNRefinedweight(PreferGoals,1,1,1,2,2,2,0.5),10*PNRefinedweight(PreferNonGoals,2,1,1,1,2,2,2),5*OrientLMaxWeight(ConstPrio,2,1,2,1,1),1*FIFOWeight(ConstPrio))'"
tRp356
g2
(g8
S'\x89A`\xe5\xd0\xd2R@'
tRp357
tp358
a(g2
(g3
(S'S10'
I0
I1
tRp359
(I3
S'|'
NNNI10
I1
I0
tbS'SWV792-1.p'
tRp360
g2
(g3
(S'S430'
I0
I1
tRp361
(I3
S'|'
NNNI430
I1
I0
tbS"--definitional-cnf=24 -s --delete-bad-limit=1024000000 --simul-paramod -F1 -WSelectNewComplexAHP --forward-context-sr --split-aggressive --split-clauses=8 --split-reuse-defs --destructive-er-aggressive --destructive-er -tKBO6 -winvfreqrank -c1 -Ginvfreq --tstp-in -H'(10*PNRefinedweight(PreferGoals,1,1,1,2,2,2,0.5),10*PNRefinedweight(PreferNonGoals,2,1,1,1,2,2,2),5*OrientLMaxWeight(ConstPrio,2,1,2,1,1),1*FIFOWeight(ConstPrio))'"
tRp362
g2
(g8
S'm\xe7\xfb\xa9\xf1\xcaV@'
tRp363
tp364
a(g2
(g3
(S'S10'
I0
I1
tRp365
(I3
S'|'
NNNI10
I1
I0
tbS'PRO003+2.p'
tRp366
g2
(g3
(S'S430'
I0
I1
tRp367
(I3
S'|'
NNNI430
I1
I0
tbS"--definitional-cnf=24 -s --delete-bad-limit=1024000000 --simul-paramod -F1 -WSelectNewComplexAHP --forward-context-sr --split-aggressive --split-clauses=8 --split-reuse-defs --destructive-er-aggressive --destructive-er -tKBO6 -winvfreqrank -c1 -Ginvfreq --tstp-in -H'(10*PNRefinedweight(PreferGoals,1,1,1,2,2,2,0.5),10*PNRefinedweight(PreferNonGoals,2,1,1,1,2,2,2),5*OrientLMaxWeight(ConstPrio,2,1,2,1,1),1*FIFOWeight(ConstPrio))'"
tRp368
g2
(g8
S'\xf8S\xe3\xa5\x9b\x04c@'
tRp369
tp370
a(g2
(g3
(S'S10'
I0
I1
tRp371
(I3
S'|'
NNNI10
I1
I0
tbS'CSR098+6.p'
tRp372
g2
(g3
(S'S430'
I0
I1
tRp373
(I3
S'|'
NNNI430
I1
I0
tbS"--definitional-cnf=24 -s --delete-bad-limit=1024000000 --simul-paramod -F1 -WSelectNewComplexAHP --forward-context-sr --split-aggressive --split-clauses=8 --split-reuse-defs --destructive-er-aggressive --destructive-er -tKBO6 -winvfreqrank -c1 -Ginvfreq --tstp-in -H'(10*PNRefinedweight(PreferGoals,1,1,1,2,2,2,0.5),10*PNRefinedweight(PreferNonGoals,2,1,1,1,2,2,2),5*OrientLMaxWeight(ConstPrio,2,1,2,1,1),1*FIFOWeight(ConstPrio))'"
tRp374
g2
(g8
S'\xaa\xf1\xd2Mb\xdcd@'
tRp375
tp376
a(g2
(g3
(S'S10'
I0
I1
tRp377
(I3
S'|'
NNNI10
I1
I0
tbS'CSR098+7.p'
tRp378
g2
(g3
(S'S430'
I0
I1
tRp379
(I3
S'|'
NNNI430
I1
I0
tbS"--definitional-cnf=24 -s --delete-bad-limit=1024000000 --simul-paramod -F1 -WSelectNewComplexAHP --forward-context-sr --split-aggressive --split-clauses=8 --split-reuse-defs --destructive-er-aggressive --destructive-er -tKBO6 -winvfreqrank -c1 -Ginvfreq --tstp-in -H'(10*PNRefinedweight(PreferGoals,1,1,1,2,2,2,0.5),10*PNRefinedweight(PreferNonGoals,2,1,1,1,2,2,2),5*OrientLMaxWeight(ConstPrio,2,1,2,1,1),1*FIFOWeight(ConstPrio))'"
tRp380
g2
(g8
S'w\xbe\x9f\x1a/md@'
tRp381
tp382
a(g2
(g3
(S'S10'
I0
I1
tRp383
(I3
S'|'
NNNI10
I1
I0
tbS'GRP102-1.p'
tRp384
g2
(g3
(S'S430'
I0
I1
tRp385
(I3
S'|'
NNNI430
I1
I0
tbS"--definitional-cnf=24 -s --delete-bad-limit=1024000000 --simul-paramod -F1 -WSelectNewComplexAHP --forward-context-sr --split-aggressive --split-clauses=8 --split-reuse-defs --destructive-er-aggressive --destructive-er -tKBO6 -winvfreqrank -c1 -Ginvfreq --tstp-in -H'(10*PNRefinedweight(PreferGoals,1,1,1,2,2,2,0.5),10*PNRefinedweight(PreferNonGoals,2,1,1,1,2,2,2),5*OrientLMaxWeight(ConstPrio,2,1,2,1,1),1*FIFOWeight(ConstPrio))'"
tRp386
g2
(g8
S'Zd;\xdfO\x8d\xf1?'
tRp387
tp388
a(g2
(g3
(S'S10'
I0
I1
tRp389
(I3
S'|'
NNNI10
I1
I0
tbS'GRP655+3.p'
tRp390
g2
(g3
(S'S430'
I0
I1
tRp391
(I3
S'|'
NNNI430
I1
I0
tbS"--definitional-cnf=24 -s --delete-bad-limit=1024000000 --simul-paramod -F1 -WSelectNewComplexAHP --forward-context-sr --split-aggressive --split-clauses=8 --split-reuse-defs --destructive-er-aggressive --destructive-er -tKBO6 -winvfreqrank -c1 -Ginvfreq --tstp-in -H'(10*PNRefinedweight(PreferGoals,1,1,1,2,2,2,0.5),10*PNRefinedweight(PreferNonGoals,2,1,1,1,2,2,2),5*OrientLMaxWeight(ConstPrio,2,1,2,1,1),1*FIFOWeight(ConstPrio))'"
tRp392
g2
(g8
S'\x17\xd9\xce\xf7S\xe3!@'
tRp393
tp394
a(g2
(g3
(S'S10'
I0
I1
tRp395
(I3
S'|'
NNNI10
I1
I0
tbS'COL057-1.p'
tRp396
g2
(g3
(S'S430'
I0
I1
tRp397
(I3
S'|'
NNNI430
I1
I0
tbS"--definitional-cnf=24 -s --delete-bad-limit=1024000000 --simul-paramod -F1 -WSelectNewComplexAHP --forward-context-sr --split-aggressive --split-clauses=8 --split-reuse-defs --destructive-er-aggressive --destructive-er -tKBO6 -winvfreqrank -c1 -Ginvfreq --tstp-in -H'(10*PNRefinedweight(PreferGoals,1,1,1,2,2,2,0.5),10*PNRefinedweight(PreferNonGoals,2,1,1,1,2,2,2),5*OrientLMaxWeight(ConstPrio,2,1,2,1,1),1*FIFOWeight(ConstPrio))'"
tRp398
g2
(g8
S'\x98n\x12\x83\xc0\xca\xfb?'
tRp399
tp400
a(g2
(g3
(S'S10'
I0
I1
tRp401
(I3
S'|'
NNNI10
I1
I0
tbS'AGT005+1.p'
tRp402
g2
(g3
(S'S430'
I0
I1
tRp403
(I3
S'|'
NNNI430
I1
I0
tbS"--definitional-cnf=24 -s --delete-bad-limit=1024000000 --simul-paramod -F1 -WSelectNewComplexAHP --forward-context-sr --split-aggressive --split-clauses=8 --split-reuse-defs --destructive-er-aggressive --destructive-er -tKBO6 -winvfreqrank -c1 -Ginvfreq --tstp-in -H'(10*PNRefinedweight(PreferGoals,1,1,1,2,2,2,0.5),10*PNRefinedweight(PreferNonGoals,2,1,1,1,2,2,2),5*OrientLMaxWeight(ConstPrio,2,1,2,1,1),1*FIFOWeight(ConstPrio))'"
tRp404
g2
(g8
S'q=\n\xd7\xa3`r@'
tRp405
tp406
a(g2
(g3
(S'S10'
I0
I1
tRp407
(I3
S'|'
NNNI10
I1
I0
tbS'KLE046+1.p'
tRp408
g2
(g3
(S'S430'
I0
I1
tRp409
(I3
S'|'
NNNI430
I1
I0
tbS"--definitional-cnf=24 -s --delete-bad-limit=1024000000 --simul-paramod -F1 -WSelectNewComplexAHP --forward-context-sr --split-aggressive --split-clauses=8 --split-reuse-defs --destructive-er-aggressive --destructive-er -tKBO6 -winvfreqrank -c1 -Ginvfreq --tstp-in -H'(10*PNRefinedweight(PreferGoals,1,1,1,2,2,2,0.5),10*PNRefinedweight(PreferNonGoals,2,1,1,1,2,2,2),5*OrientLMaxWeight(ConstPrio,2,1,2,1,1),1*FIFOWeight(ConstPrio))'"
tRp410
g2
(g8
S'\xdfO\x8d\x97n\x88q@'
tRp411
tp412
a(g2
(g3
(S'S10'
I0
I1
tRp413
(I3
S'|'
NNNI10
I1
I0
tbS'NUM329+1.p'
tRp414
g2
(g3
(S'S430'
I0
I1
tRp415
(I3
S'|'
NNNI430
I1
I0
tbS"--definitional-cnf=24 -s --delete-bad-limit=1024000000 --simul-paramod -F1 -WSelectNewComplexAHP --forward-context-sr --split-aggressive --split-clauses=8 --split-reuse-defs --destructive-er-aggressive --destructive-er -tKBO6 -winvfreqrank -c1 -Ginvfreq --tstp-in -H'(10*PNRefinedweight(PreferGoals,1,1,1,2,2,2,0.5),10*PNRefinedweight(PreferNonGoals,2,1,1,1,2,2,2),5*OrientLMaxWeight(ConstPrio,2,1,2,1,1),1*FIFOWeight(ConstPrio))'"
tRp416
g2
(g8
S'X9\xb4\xc8v\x02p@'
tRp417
tp418
a(g2
(g3
(S'S10'
I0
I1
tRp419
(I3
S'|'
NNNI10
I1
I0
tbS'CSR118+4.p'
tRp420
g2
(g3
(S'S430'
I0
I1
tRp421
(I3
S'|'
NNNI430
I1
I0
tbS"--definitional-cnf=24 -s --delete-bad-limit=1024000000 --simul-paramod -F1 -WSelectNewComplexAHP --forward-context-sr --split-aggressive --split-clauses=8 --split-reuse-defs --destructive-er-aggressive --destructive-er -tKBO6 -winvfreqrank -c1 -Ginvfreq --tstp-in -H'(10*PNRefinedweight(PreferGoals,1,1,1,2,2,2,0.5),10*PNRefinedweight(PreferNonGoals,2,1,1,1,2,2,2),5*OrientLMaxWeight(ConstPrio,2,1,2,1,1),1*FIFOWeight(ConstPrio))'"
tRp422
g2
(g8
S'\x0c\x02+\x87\x16\x89]@'
tRp423
tp424
a(g2
(g3
(S'S18'
I0
I1
tRp425
(I3
S'|'
NNNI18
I1
I0
tbS'NUM378+1.015.020.p'
tRp426
g2
(g3
(S'S430'
I0
I1
tRp427
(I3
S'|'
NNNI430
I1
I0
tbS"--definitional-cnf=24 -s --delete-bad-limit=1024000000 --simul-paramod -F1 -WSelectNewComplexAHP --forward-context-sr --split-aggressive --split-clauses=8 --split-reuse-defs --destructive-er-aggressive --destructive-er -tKBO6 -winvfreqrank -c1 -Ginvfreq --tstp-in -H'(10*PNRefinedweight(PreferGoals,1,1,1,2,2,2,0.5),10*PNRefinedweight(PreferNonGoals,2,1,1,1,2,2,2),5*OrientLMaxWeight(ConstPrio,2,1,2,1,1),1*FIFOWeight(ConstPrio))'"
tRp428
g2
(g8
S'\x85\xebQ\xb8\x1e\xcdZ@'
tRp429
tp430
a(g2
(g3
(S'S10'
I0
I1
tRp431
(I3
S'|'
NNNI10
I1
I0
tbS'CSR085+6.p'
tRp432
g2
(g3
(S'S430'
I0
I1
tRp433
(I3
S'|'
NNNI430
I1
I0
tbS"--definitional-cnf=24 -s --delete-bad-limit=1024000000 --simul-paramod -F1 -WSelectNewComplexAHP --forward-context-sr --split-aggressive --split-clauses=8 --split-reuse-defs --destructive-er-aggressive --destructive-er -tKBO6 -winvfreqrank -c1 -Ginvfreq --tstp-in -H'(10*PNRefinedweight(PreferGoals,1,1,1,2,2,2,0.5),10*PNRefinedweight(PreferNonGoals,2,1,1,1,2,2,2),5*OrientLMaxWeight(ConstPrio,2,1,2,1,1),1*FIFOWeight(ConstPrio))'"
tRp434
g2
(g8
S'B`\xe5\xd0"\xffa@'
tRp435
tp436
a(g2
(g3
(S'S10'
I0
I1
tRp437
(I3
S'|'
NNNI10
I1
I0
tbS'SEU162+2.p'
tRp438
g2
(g3
(S'S430'
I0
I1
tRp439
(I3
S'|'
NNNI430
I1
I0
tbS"--definitional-cnf=24 -s --delete-bad-limit=1024000000 --simul-paramod -F1 -WSelectNewComplexAHP --forward-context-sr --split-aggressive --split-clauses=8 --split-reuse-defs --destructive-er-aggressive --destructive-er -tKBO6 -winvfreqrank -c1 -Ginvfreq --tstp-in -H'(10*PNRefinedweight(PreferGoals,1,1,1,2,2,2,0.5),10*PNRefinedweight(PreferNonGoals,2,1,1,1,2,2,2),5*OrientLMaxWeight(ConstPrio,2,1,2,1,1),1*FIFOWeight(ConstPrio))'"
tRp440
g2
(g8
S'\xf4\xfd\xd4x\xe9Ri@'
tRp441
tp442
a(g2
(g3
(S'S10'
I0
I1
tRp443
(I3
S'|'
NNNI10
I1
I0
tbS'GEO270+1.p'
tRp444
g2
(g3
(S'S430'
I0
I1
tRp445
(I3
S'|'
NNNI430
I1
I0
tbS"--definitional-cnf=24 -s --delete-bad-limit=1024000000 --simul-paramod -F1 -WSelectNewComplexAHP --forward-context-sr --split-aggressive --split-clauses=8 --split-reuse-defs --destructive-er-aggressive --destructive-er -tKBO6 -winvfreqrank -c1 -Ginvfreq --tstp-in -H'(10*PNRefinedweight(PreferGoals,1,1,1,2,2,2,0.5),10*PNRefinedweight(PreferNonGoals,2,1,1,1,2,2,2),5*OrientLMaxWeight(ConstPrio,2,1,2,1,1),1*FIFOWeight(ConstPrio))'"
tRp446
g2
(g8
S'\x06\x81\x95C\x8b\xb0m@'
tRp447
tp448
a(g2
(g3
(S'S10'
I0
I1
tRp449
(I3
S'|'
NNNI10
I1
I0
tbS'GRP663-1.p'
tRp450
g2
(g3
(S'S430'
I0
I1
tRp451
(I3
S'|'
NNNI430
I1
I0
tbS"--definitional-cnf=24 -s --delete-bad-limit=1024000000 --simul-paramod -F1 -WSelectNewComplexAHP --forward-context-sr --split-aggressive --split-clauses=8 --split-reuse-defs --destructive-er-aggressive --destructive-er -tKBO6 -winvfreqrank -c1 -Ginvfreq --tstp-in -H'(10*PNRefinedweight(PreferGoals,1,1,1,2,2,2,0.5),10*PNRefinedweight(PreferNonGoals,2,1,1,1,2,2,2),5*OrientLMaxWeight(ConstPrio,2,1,2,1,1),1*FIFOWeight(ConstPrio))'"
tRp452
g2
(g8
S'\x83\xc0\xca\xa1E\x9an@'
tRp453
tp454
a(g2
(g3
(S'S10'
I0
I1
tRp455
(I3
S'|'
NNNI10
I1
I0
tbS'CSR099+4.p'
tRp456
g2
(g3
(S'S430'
I0
I1
tRp457
(I3
S'|'
NNNI430
I1
I0
tbS"--definitional-cnf=24 -s --delete-bad-limit=1024000000 --simul-paramod -F1 -WSelectNewComplexAHP --forward-context-sr --split-aggressive --split-clauses=8 --split-reuse-defs --destructive-er-aggressive --destructive-er -tKBO6 -winvfreqrank -c1 -Ginvfreq --tstp-in -H'(10*PNRefinedweight(PreferGoals,1,1,1,2,2,2,0.5),10*PNRefinedweight(PreferNonGoals,2,1,1,1,2,2,2),5*OrientLMaxWeight(ConstPrio,2,1,2,1,1),1*FIFOWeight(ConstPrio))'"
tRp458
g2
(g8
S'\x89A`\xe5\xd0\xf2A@'
tRp459
tp460
a(g2
(g3
(S'S10'
I0
I1
tRp461
(I3
S'|'
NNNI10
I1
I0
tbS'SET584+3.p'
tRp462
g2
(g3
(S'S430'
I0
I1
tRp463
(I3
S'|'
NNNI430
I1
I0
tbS"--definitional-cnf=24 -s --delete-bad-limit=1024000000 --simul-paramod -F1 -WSelectNewComplexAHP --forward-context-sr --split-aggressive --split-clauses=8 --split-reuse-defs --destructive-er-aggressive --destructive-er -tKBO6 -winvfreqrank -c1 -Ginvfreq --tstp-in -H'(10*PNRefinedweight(PreferGoals,1,1,1,2,2,2,0.5),10*PNRefinedweight(PreferNonGoals,2,1,1,1,2,2,2),5*OrientLMaxWeight(ConstPrio,2,1,2,1,1),1*FIFOWeight(ConstPrio))'"
tRp464
g2
(g8
S'%\x06\x81\x95C\xebA@'
tRp465
tp466
a(g2
(g3
(S'S10'
I0
I1
tRp467
(I3
S'|'
NNNI10
I1
I0
tbS'ALG145+1.p'
tRp468
g2
(g3
(S'S430'
I0
I1
tRp469
(I3
S'|'
NNNI430
I1
I0
tbS"--definitional-cnf=24 -s --delete-bad-limit=1024000000 --simul-paramod -F1 -WSelectNewComplexAHP --forward-context-sr --split-aggressive --split-clauses=8 --split-reuse-defs --destructive-er-aggressive --destructive-er -tKBO6 -winvfreqrank -c1 -Ginvfreq --tstp-in -H'(10*PNRefinedweight(PreferGoals,1,1,1,2,2,2,0.5),10*PNRefinedweight(PreferNonGoals,2,1,1,1,2,2,2),5*OrientLMaxWeight(ConstPrio,2,1,2,1,1),1*FIFOWeight(ConstPrio))'"
tRp470
g2
(g8
S'\xb0rh\x91\xed\x9cE@'
tRp471
tp472
a(g2
(g3
(S'S10'
I0
I1
tRp473
(I3
S'|'
NNNI10
I1
I0
tbS'SWV415+1.p'
tRp474
g2
(g3
(S'S430'
I0
I1
tRp475
(I3
S'|'
NNNI430
I1
I0
tbS"--definitional-cnf=24 -s --delete-bad-limit=1024000000 --simul-paramod -F1 -WSelectNewComplexAHP --forward-context-sr --split-aggressive --split-clauses=8 --split-reuse-defs --destructive-er-aggressive --destructive-er -tKBO6 -winvfreqrank -c1 -Ginvfreq --tstp-in -H'(10*PNRefinedweight(PreferGoals,1,1,1,2,2,2,0.5),10*PNRefinedweight(PreferNonGoals,2,1,1,1,2,2,2),5*OrientLMaxWeight(ConstPrio,2,1,2,1,1),1*FIFOWeight(ConstPrio))'"
tRp476
g2
(g8
S'\x91\xed|?5\x1e)@'
tRp477
tp478
a(g2
(g3
(S'S10'
I0
I1
tRp479
(I3
S'|'
NNNI10
I1
I0
tbS'SWC225+1.p'
tRp480
g2
(g3
(S'S430'
I0
I1
tRp481
(I3
S'|'
NNNI430
I1
I0
tbS"--definitional-cnf=24 -s --delete-bad-limit=1024000000 --simul-paramod -F1 -WSelectNewComplexAHP --forward-context-sr --split-aggressive --split-clauses=8 --split-reuse-defs --destructive-er-aggressive --destructive-er -tKBO6 -winvfreqrank -c1 -Ginvfreq --tstp-in -H'(10*PNRefinedweight(PreferGoals,1,1,1,2,2,2,0.5),10*PNRefinedweight(PreferNonGoals,2,1,1,1,2,2,2),5*OrientLMaxWeight(ConstPrio,2,1,2,1,1),1*FIFOWeight(ConstPrio))'"
tRp482
g2
(g8
S'\x17\xd9\xce\xf7Sc;@'
tRp483
tp484
a(g2
(g3
(S'S10'
I0
I1
tRp485
(I3
S'|'
NNNI10
I1
I0
tbS'SWC393+1.p'
tRp486
g2
(g3
(S'S430'
I0
I1
tRp487
(I3
S'|'
NNNI430
I1
I0
tbS"--definitional-cnf=24 -s --delete-bad-limit=1024000000 --simul-paramod -F1 -WSelectNewComplexAHP --forward-context-sr --split-aggressive --split-clauses=8 --split-reuse-defs --destructive-er-aggressive --destructive-er -tKBO6 -winvfreqrank -c1 -Ginvfreq --tstp-in -H'(10*PNRefinedweight(PreferGoals,1,1,1,2,2,2,0.5),10*PNRefinedweight(PreferNonGoals,2,1,1,1,2,2,2),5*OrientLMaxWeight(ConstPrio,2,1,2,1,1),1*FIFOWeight(ConstPrio))'"
tRp488
g2
(g8
S'1\x08\xac\x1cZ\xa43@'
tRp489
tp490
a(g2
(g3
(S'S10'
I0
I1
tRp491
(I3
S'|'
NNNI10
I1
I0
tbS'SYN553-1.p'
tRp492
g2
(g3
(S'S454'
I0
I1
tRp493
(I3
S'|'
NNNI454
I1
I0
tbS"--definitional-cnf=24 --tstp-in --presat-simplify --split-reuse-defs --split-clauses=4 --simul-paramod --forward-context-sr --destructive-er-aggressive --destructive-er --prefer-initial-clauses -tKBO6 -winvfreqrank -c1 -Ginvfreqconjmax -F1 -s --delete-bad-limit=1024000000 -WSelectNewComplexAHPNS -H'(20*ConjectureRelativeSymbolWeight(ConstPrio,0.1, 100, 100, 100, 100, 1.5, 1.5, 1.5),1*Refinedweight(PreferNonGoals,2,1,2,3,0.8),1*FIFOWeight(ConstPrio))'"
tRp494
g2
(g8
S'`\xe5\xd0"\xdb\xf9\xe2?'
tRp495
tp496
a(g2
(g3
(S'S10'
I0
I1
tRp497
(I3
S'|'
NNNI10
I1
I0
tbS'ANA013-1.p'
tRp498
g2
(g3
(S'S454'
I0
I1
tRp499
(I3
S'|'
NNNI454
I1
I0
tbS"--definitional-cnf=24 --tstp-in --presat-simplify --split-reuse-defs --split-clauses=4 --simul-paramod --forward-context-sr --destructive-er-aggressive --destructive-er --prefer-initial-clauses -tKBO6 -winvfreqrank -c1 -Ginvfreqconjmax -F1 -s --delete-bad-limit=1024000000 -WSelectNewComplexAHPNS -H'(20*ConjectureRelativeSymbolWeight(ConstPrio,0.1, 100, 100, 100, 100, 1.5, 1.5, 1.5),1*Refinedweight(PreferNonGoals,2,1,2,3,0.8),1*FIFOWeight(ConstPrio))'"
tRp500
g2
(g8
S'\xb6\xf3\xfd\xd4x\xe9\xea?'
tRp501
tp502
a(g2
(g3
(S'S10'
I0
I1
tRp503
(I3
S'|'
NNNI10
I1
I0
tbS'ALG032+1.p'
tRp504
g2
(g3
(S'S454'
I0
I1
tRp505
(I3
S'|'
NNNI454
I1
I0
tbS"--definitional-cnf=24 --tstp-in --presat-simplify --split-reuse-defs --split-clauses=4 --simul-paramod --forward-context-sr --destructive-er-aggressive --destructive-er --prefer-initial-clauses -tKBO6 -winvfreqrank -c1 -Ginvfreqconjmax -F1 -s --delete-bad-limit=1024000000 -WSelectNewComplexAHPNS -H'(20*ConjectureRelativeSymbolWeight(ConstPrio,0.1, 100, 100, 100, 100, 1.5, 1.5, 1.5),1*Refinedweight(PreferNonGoals,2,1,2,3,0.8),1*FIFOWeight(ConstPrio))'"
tRp506
g2
(g8
S'd;\xdfO\x8d\x97\xe6?'
tRp507
tp508
a(g2
(g3
(S'S10'
I0
I1
tRp509
(I3
S'|'
NNNI10
I1
I0
tbS'MGT046-1.p'
tRp510
g2
(g3
(S'S454'
I0
I1
tRp511
(I3
S'|'
NNNI454
I1
I0
tbS"--definitional-cnf=24 --tstp-in --presat-simplify --split-reuse-defs --split-clauses=4 --simul-paramod --forward-context-sr --destructive-er-aggressive --destructive-er --prefer-initial-clauses -tKBO6 -winvfreqrank -c1 -Ginvfreqconjmax -F1 -s --delete-bad-limit=1024000000 -WSelectNewComplexAHPNS -H'(20*ConjectureRelativeSymbolWeight(ConstPrio,0.1, 100, 100, 100, 100, 1.5, 1.5, 1.5),1*Refinedweight(PreferNonGoals,2,1,2,3,0.8),1*FIFOWeight(ConstPrio))'"
tRp512
g2
(g8
S'=\n\xd7\xa3p\xd5V@'
tRp513
tp514
a(g2
(g3
(S'S10'
I0
I1
tRp515
(I3
S'|'
NNNI10
I1
I0
tbS'SWV277-1.p'
tRp516
g2
(g3
(S'S454'
I0
I1
tRp517
(I3
S'|'
NNNI454
I1
I0
tbS"--definitional-cnf=24 --tstp-in --presat-simplify --split-reuse-defs --split-clauses=4 --simul-paramod --forward-context-sr --destructive-er-aggressive --destructive-er --prefer-initial-clauses -tKBO6 -winvfreqrank -c1 -Ginvfreqconjmax -F1 -s --delete-bad-limit=1024000000 -WSelectNewComplexAHPNS -H'(20*ConjectureRelativeSymbolWeight(ConstPrio,0.1, 100, 100, 100, 100, 1.5, 1.5, 1.5),1*Refinedweight(PreferNonGoals,2,1,2,3,0.8),1*FIFOWeight(ConstPrio))'"
tRp518
g2
(g8
S'H\xe1z\x14\xae\x1fS@'
tRp519
tp520
a(g2
(g3
(S'S10'
I0
I1
tRp521
(I3
S'|'
NNNI10
I1
I0
tbS'GEO053-2.p'
tRp522
g2
(g3
(S'S454'
I0
I1
tRp523
(I3
S'|'
NNNI454
I1
I0
tbS"--definitional-cnf=24 --tstp-in --presat-simplify --split-reuse-defs --split-clauses=4 --simul-paramod --forward-context-sr --destructive-er-aggressive --destructive-er --prefer-initial-clauses -tKBO6 -winvfreqrank -c1 -Ginvfreqconjmax -F1 -s --delete-bad-limit=1024000000 -WSelectNewComplexAHPNS -H'(20*ConjectureRelativeSymbolWeight(ConstPrio,0.1, 100, 100, 100, 100, 1.5, 1.5, 1.5),1*Refinedweight(PreferNonGoals,2,1,2,3,0.8),1*FIFOWeight(ConstPrio))'"
tRp524
g2
(g8
S'Nb\x10X9\x04W@'
tRp525
tp526
a(g2
(g3
(S'S10'
I0
I1
tRp527
(I3
S'|'
NNNI10
I1
I0
tbS'NUM513+3.p'
tRp528
g2
(g3
(S'S454'
I0
I1
tRp529
(I3
S'|'
NNNI454
I1
I0
tbS"--definitional-cnf=24 --tstp-in --presat-simplify --split-reuse-defs --split-clauses=4 --simul-paramod --forward-context-sr --destructive-er-aggressive --destructive-er --prefer-initial-clauses -tKBO6 -winvfreqrank -c1 -Ginvfreqconjmax -F1 -s --delete-bad-limit=1024000000 -WSelectNewComplexAHPNS -H'(20*ConjectureRelativeSymbolWeight(ConstPrio,0.1, 100, 100, 100, 100, 1.5, 1.5, 1.5),1*Refinedweight(PreferNonGoals,2,1,2,3,0.8),1*FIFOWeight(ConstPrio))'"
tRp530
g2
(g8
S'P\x8d\x97n\x12\xabc@'
tRp531
tp532
a(g2
(g3
(S'S10'
I0
I1
tRp533
(I3
S'|'
NNNI10
I1
I0
tbS'NUM340+1.p'
tRp534
g2
(g3
(S'S454'
I0
I1
tRp535
(I3
S'|'
NNNI454
I1
I0
tbS"--definitional-cnf=24 --tstp-in --presat-simplify --split-reuse-defs --split-clauses=4 --simul-paramod --forward-context-sr --destructive-er-aggressive --destructive-er --prefer-initial-clauses -tKBO6 -winvfreqrank -c1 -Ginvfreqconjmax -F1 -s --delete-bad-limit=1024000000 -WSelectNewComplexAHPNS -H'(20*ConjectureRelativeSymbolWeight(ConstPrio,0.1, 100, 100, 100, 100, 1.5, 1.5, 1.5),1*Refinedweight(PreferNonGoals,2,1,2,3,0.8),1*FIFOWeight(ConstPrio))'"
tRp536
g2
(g8
S'%\x06\x81\x95C\xf7h@'
tRp537
tp538
a(g2
(g3
(S'S10'
I0
I1
tRp539
(I3
S'|'
NNNI10
I1
I0
tbS'SEU034+1.p'
tRp540
g2
(g3
(S'S454'
I0
I1
tRp541
(I3
S'|'
NNNI454
I1
I0
tbS"--definitional-cnf=24 --tstp-in --presat-simplify --split-reuse-defs --split-clauses=4 --simul-paramod --forward-context-sr --destructive-er-aggressive --destructive-er --prefer-initial-clauses -tKBO6 -winvfreqrank -c1 -Ginvfreqconjmax -F1 -s --delete-bad-limit=1024000000 -WSelectNewComplexAHPNS -H'(20*ConjectureRelativeSymbolWeight(ConstPrio,0.1, 100, 100, 100, 100, 1.5, 1.5, 1.5),1*Refinedweight(PreferNonGoals,2,1,2,3,0.8),1*FIFOWeight(ConstPrio))'"
tRp542
g2
(g8
S'\xd3Mb\x10X\xade@'
tRp543
tp544
a(g2
(g3
(S'S10'
I0
I1
tRp545
(I3
S'|'
NNNI10
I1
I0
tbS'SWB065+1.p'
tRp546
g2
(g3
(S'S454'
I0
I1
tRp547
(I3
S'|'
NNNI454
I1
I0
tbS"--definitional-cnf=24 --tstp-in --presat-simplify --split-reuse-defs --split-clauses=4 --simul-paramod --forward-context-sr --destructive-er-aggressive --destructive-er --prefer-initial-clauses -tKBO6 -winvfreqrank -c1 -Ginvfreqconjmax -F1 -s --delete-bad-limit=1024000000 -WSelectNewComplexAHPNS -H'(20*ConjectureRelativeSymbolWeight(ConstPrio,0.1, 100, 100, 100, 100, 1.5, 1.5, 1.5),1*Refinedweight(PreferNonGoals,2,1,2,3,0.8),1*FIFOWeight(ConstPrio))'"
tRp548
g2
(g8
S'\xd1"\xdb\xf9~\xaa!@'
tRp549
tp550
a(g2
(g3
(S'S10'
I0
I1
tRp551
(I3
S'|'
NNNI10
I1
I0
tbS'CSR083+2.p'
tRp552
g2
(g3
(S'S454'
I0
I1
tRp553
(I3
S'|'
NNNI454
I1
I0
tbS"--definitional-cnf=24 --tstp-in --presat-simplify --split-reuse-defs --split-clauses=4 --simul-paramod --forward-context-sr --destructive-er-aggressive --destructive-er --prefer-initial-clauses -tKBO6 -winvfreqrank -c1 -Ginvfreqconjmax -F1 -s --delete-bad-limit=1024000000 -WSelectNewComplexAHPNS -H'(20*ConjectureRelativeSymbolWeight(ConstPrio,0.1, 100, 100, 100, 100, 1.5, 1.5, 1.5),1*Refinedweight(PreferNonGoals,2,1,2,3,0.8),1*FIFOWeight(ConstPrio))'"
tRp554
g2
(g8
S'\x14\xaeG\xe1z\x94\x1c@'
tRp555
tp556
a(g2
(g3
(S'S10'
I0
I1
tRp557
(I3
S'|'
NNNI10
I1
I0
tbS'NUM049-1.p'
tRp558
g2
(g3
(S'S454'
I0
I1
tRp559
(I3
S'|'
NNNI454
I1
I0
tbS"--definitional-cnf=24 --tstp-in --presat-simplify --split-reuse-defs --split-clauses=4 --simul-paramod --forward-context-sr --destructive-er-aggressive --destructive-er --prefer-initial-clauses -tKBO6 -winvfreqrank -c1 -Ginvfreqconjmax -F1 -s --delete-bad-limit=1024000000 -WSelectNewComplexAHPNS -H'(20*ConjectureRelativeSymbolWeight(ConstPrio,0.1, 100, 100, 100, 100, 1.5, 1.5, 1.5),1*Refinedweight(PreferNonGoals,2,1,2,3,0.8),1*FIFOWeight(ConstPrio))'"
tRp560
g2
(g8
S'\x1dZd;\xdf\xcf\x15@'
tRp561
tp562
a(g2
(g3
(S'S10'
I0
I1
tRp563
(I3
S'|'
NNNI10
I1
I0
tbS'CSR100+2.p'
tRp564
g2
(g3
(S'S454'
I0
I1
tRp565
(I3
S'|'
NNNI454
I1
I0
tbS"--definitional-cnf=24 --tstp-in --presat-simplify --split-reuse-defs --split-clauses=4 --simul-paramod --forward-context-sr --destructive-er-aggressive --destructive-er --prefer-initial-clauses -tKBO6 -winvfreqrank -c1 -Ginvfreqconjmax -F1 -s --delete-bad-limit=1024000000 -WSelectNewComplexAHPNS -H'(20*ConjectureRelativeSymbolWeight(ConstPrio,0.1, 100, 100, 100, 100, 1.5, 1.5, 1.5),1*Refinedweight(PreferNonGoals,2,1,2,3,0.8),1*FIFOWeight(ConstPrio))'"
tRp566
g2
(g8
S'J\x0c\x02+\x87Rp@'
tRp567
tp568
a(g2
(g3
(S'S10'
I0
I1
tRp569
(I3
S'|'
NNNI10
I1
I0
tbS'NUM346+1.p'
tRp570
g2
(g3
(S'S454'
I0
I1
tRp571
(I3
S'|'
NNNI454
I1
I0
tbS"--definitional-cnf=24 --tstp-in --presat-simplify --split-reuse-defs --split-clauses=4 --simul-paramod --forward-context-sr --destructive-er-aggressive --destructive-er --prefer-initial-clauses -tKBO6 -winvfreqrank -c1 -Ginvfreqconjmax -F1 -s --delete-bad-limit=1024000000 -WSelectNewComplexAHPNS -H'(20*ConjectureRelativeSymbolWeight(ConstPrio,0.1, 100, 100, 100, 100, 1.5, 1.5, 1.5),1*Refinedweight(PreferNonGoals,2,1,2,3,0.8),1*FIFOWeight(ConstPrio))'"
tRp572
g2
(g8
S'\xa4p=\n\xd71q@'
tRp573
tp574
a(g2
(g3
(S'S10'
I0
I1
tRp575
(I3
S'|'
NNNI10
I1
I0
tbS'RNG035-7.p'
tRp576
g2
(g3
(S'S454'
I0
I1
tRp577
(I3
S'|'
NNNI454
I1
I0
tbS"--definitional-cnf=24 --tstp-in --presat-simplify --split-reuse-defs --split-clauses=4 --simul-paramod --forward-context-sr --destructive-er-aggressive --destructive-er --prefer-initial-clauses -tKBO6 -winvfreqrank -c1 -Ginvfreqconjmax -F1 -s --delete-bad-limit=1024000000 -WSelectNewComplexAHPNS -H'(20*ConjectureRelativeSymbolWeight(ConstPrio,0.1, 100, 100, 100, 100, 1.5, 1.5, 1.5),1*Refinedweight(PreferNonGoals,2,1,2,3,0.8),1*FIFOWeight(ConstPrio))'"
tRp578
g2
(g8
S'/\xdd$\x06\x81\x8dq@'
tRp579
tp580
a(g2
(g3
(S'S10'
I0
I1
tRp581
(I3
S'|'
NNNI10
I1
I0
tbS'CSR052+4.p'
tRp582
g2
(g3
(S'S454'
I0
I1
tRp583
(I3
S'|'
NNNI454
I1
I0
tbS"--definitional-cnf=24 --tstp-in --presat-simplify --split-reuse-defs --split-clauses=4 --simul-paramod --forward-context-sr --destructive-er-aggressive --destructive-er --prefer-initial-clauses -tKBO6 -winvfreqrank -c1 -Ginvfreqconjmax -F1 -s --delete-bad-limit=1024000000 -WSelectNewComplexAHPNS -H'(20*ConjectureRelativeSymbolWeight(ConstPrio,0.1, 100, 100, 100, 100, 1.5, 1.5, 1.5),1*Refinedweight(PreferNonGoals,2,1,2,3,0.8),1*FIFOWeight(ConstPrio))'"
tRp584
g2
(g8
S'F\xb6\xf3\xfd\xd4\xf8^@'
tRp585
tp586
a(g2
(g3
(S'S10'
I0
I1
tRp587
(I3
S'|'
NNNI10
I1
I0
tbS'SWC084-1.p'
tRp588
g2
(g3
(S'S454'
I0
I1
tRp589
(I3
S'|'
NNNI454
I1
I0
tbS"--definitional-cnf=24 --tstp-in --presat-simplify --split-reuse-defs --split-clauses=4 --simul-paramod --forward-context-sr --destructive-er-aggressive --destructive-er --prefer-initial-clauses -tKBO6 -winvfreqrank -c1 -Ginvfreqconjmax -F1 -s --delete-bad-limit=1024000000 -WSelectNewComplexAHPNS -H'(20*ConjectureRelativeSymbolWeight(ConstPrio,0.1, 100, 100, 100, 100, 1.5, 1.5, 1.5),1*Refinedweight(PreferNonGoals,2,1,2,3,0.8),1*FIFOWeight(ConstPrio))'"
tRp590
g2
(g8
S'\xdb\xf9~j\xbc\x1c[@'
tRp591
tp592
a(g2
(g3
(S'S10'
I0
I1
tRp593
(I3
S'|'
NNNI10
I1
I0
tbS'NUM344+1.p'
tRp594
g2
(g3
(S'S454'
I0
I1
tRp595
(I3
S'|'
NNNI454
I1
I0
tbS"--definitional-cnf=24 --tstp-in --presat-simplify --split-reuse-defs --split-clauses=4 --simul-paramod --forward-context-sr --destructive-er-aggressive --destructive-er --prefer-initial-clauses -tKBO6 -winvfreqrank -c1 -Ginvfreqconjmax -F1 -s --delete-bad-limit=1024000000 -WSelectNewComplexAHPNS -H'(20*ConjectureRelativeSymbolWeight(ConstPrio,0.1, 100, 100, 100, 100, 1.5, 1.5, 1.5),1*Refinedweight(PreferNonGoals,2,1,2,3,0.8),1*FIFOWeight(ConstPrio))'"
tRp596
g2
(g8
S'\x1dZd;\xdf\x0f`@'
tRp597
tp598
a(g2
(g3
(S'S10'
I0
I1
tRp599
(I3
S'|'
NNNI10
I1
I0
tbS'NUM327+1.p'
tRp600
g2
(g3
(S'S454'
I0
I1
tRp601
(I3
S'|'
NNNI454
I1
I0
tbS"--definitional-cnf=24 --tstp-in --presat-simplify --split-reuse-defs --split-clauses=4 --simul-paramod --forward-context-sr --destructive-er-aggressive --destructive-er --prefer-initial-clauses -tKBO6 -winvfreqrank -c1 -Ginvfreqconjmax -F1 -s --delete-bad-limit=1024000000 -WSelectNewComplexAHPNS -H'(20*ConjectureRelativeSymbolWeight(ConstPrio,0.1, 100, 100, 100, 100, 1.5, 1.5, 1.5),1*Refinedweight(PreferNonGoals,2,1,2,3,0.8),1*FIFOWeight(ConstPrio))'"
tRp602
g2
(g8
S'\x08\xac\x1cZd\x13k@'
tRp603
tp604
a(g2
(g3
(S'S10'
I0
I1
tRp605
(I3
S'|'
NNNI10
I1
I0
tbS'CSR108+2.p'
tRp606
g2
(g3
(S'S454'
I0
I1
tRp607
(I3
S'|'
NNNI454
I1
I0
tbS"--definitional-cnf=24 --tstp-in --presat-simplify --split-reuse-defs --split-clauses=4 --simul-paramod --forward-context-sr --destructive-er-aggressive --destructive-er --prefer-initial-clauses -tKBO6 -winvfreqrank -c1 -Ginvfreqconjmax -F1 -s --delete-bad-limit=1024000000 -WSelectNewComplexAHPNS -H'(20*ConjectureRelativeSymbolWeight(ConstPrio,0.1, 100, 100, 100, 100, 1.5, 1.5, 1.5),1*Refinedweight(PreferNonGoals,2,1,2,3,0.8),1*FIFOWeight(ConstPrio))'"
tRp608
g2
(g8
S'u\x93\x18\x04V\xfal@'
tRp609
tp610
a(g2
(g3
(S'S10'
I0
I1
tRp611
(I3
S'|'
NNNI10
I1
I0
tbS'SET144-6.p'
tRp612
g2
(g3
(S'S454'
I0
I1
tRp613
(I3
S'|'
NNNI454
I1
I0
tbS"--definitional-cnf=24 --tstp-in --presat-simplify --split-reuse-defs --split-clauses=4 --simul-paramod --forward-context-sr --destructive-er-aggressive --destructive-er --prefer-initial-clauses -tKBO6 -winvfreqrank -c1 -Ginvfreqconjmax -F1 -s --delete-bad-limit=1024000000 -WSelectNewComplexAHPNS -H'(20*ConjectureRelativeSymbolWeight(ConstPrio,0.1, 100, 100, 100, 100, 1.5, 1.5, 1.5),1*Refinedweight(PreferNonGoals,2,1,2,3,0.8),1*FIFOWeight(ConstPrio))'"
tRp614
g2
(g8
S'\x1dZd;\xdf7i@'
tRp615
tp616
a(g2
(g3
(S'S10'
I0
I1
tRp617
(I3
S'|'
NNNI10
I1
I0
tbS'CSR055+4.p'
tRp618
g2
(g3
(S'S454'
I0
I1
tRp619
(I3
S'|'
NNNI454
I1
I0
tbS"--definitional-cnf=24 --tstp-in --presat-simplify --split-reuse-defs --split-clauses=4 --simul-paramod --forward-context-sr --destructive-er-aggressive --destructive-er --prefer-initial-clauses -tKBO6 -winvfreqrank -c1 -Ginvfreqconjmax -F1 -s --delete-bad-limit=1024000000 -WSelectNewComplexAHPNS -H'(20*ConjectureRelativeSymbolWeight(ConstPrio,0.1, 100, 100, 100, 100, 1.5, 1.5, 1.5),1*Refinedweight(PreferNonGoals,2,1,2,3,0.8),1*FIFOWeight(ConstPrio))'"
tRp620
g2
(g8
S'\xf2\xd2Mb\x10\xd8?@'
tRp621
tp622
a(g2
(g3
(S'S10'
I0
I1
tRp623
(I3
S'|'
NNNI10
I1
I0
tbS'CSR056+4.p'
tRp624
g2
(g3
(S'S454'
I0
I1
tRp625
(I3
S'|'
NNNI454
I1
I0
tbS"--definitional-cnf=24 --tstp-in --presat-simplify --split-reuse-defs --split-clauses=4 --simul-paramod --forward-context-sr --destructive-er-aggressive --destructive-er --prefer-initial-clauses -tKBO6 -winvfreqrank -c1 -Ginvfreqconjmax -F1 -s --delete-bad-limit=1024000000 -WSelectNewComplexAHPNS -H'(20*ConjectureRelativeSymbolWeight(ConstPrio,0.1, 100, 100, 100, 100, 1.5, 1.5, 1.5),1*Refinedweight(PreferNonGoals,2,1,2,3,0.8),1*FIFOWeight(ConstPrio))'"
tRp626
g2
(g8
S'#\xdb\xf9~j,A@'
tRp627
tp628
a(g2
(g3
(S'S10'
I0
I1
tRp629
(I3
S'|'
NNNI10
I1
I0
tbS'SET846-1.p'
tRp630
g2
(g3
(S'S454'
I0
I1
tRp631
(I3
S'|'
NNNI454
I1
I0
tbS"--definitional-cnf=24 --tstp-in --presat-simplify --split-reuse-defs --split-clauses=4 --simul-paramod --forward-context-sr --destructive-er-aggressive --destructive-er --prefer-initial-clauses -tKBO6 -winvfreqrank -c1 -Ginvfreqconjmax -F1 -s --delete-bad-limit=1024000000 -WSelectNewComplexAHPNS -H'(20*ConjectureRelativeSymbolWeight(ConstPrio,0.1, 100, 100, 100, 100, 1.5, 1.5, 1.5),1*Refinedweight(PreferNonGoals,2,1,2,3,0.8),1*FIFOWeight(ConstPrio))'"
tRp632
g2
(g8
S'\xdb\xf9~j\xbcdF@'
tRp633
tp634
a(g2
(g3
(S'S10'
I0
I1
tRp635
(I3
S'|'
NNNI10
I1
I0
tbS'SWC093+1.p'
tRp636
g2
(g3
(S'S454'
I0
I1
tRp637
(I3
S'|'
NNNI454
I1
I0
tbS"--definitional-cnf=24 --tstp-in --presat-simplify --split-reuse-defs --split-clauses=4 --simul-paramod --forward-context-sr --destructive-er-aggressive --destructive-er --prefer-initial-clauses -tKBO6 -winvfreqrank -c1 -Ginvfreqconjmax -F1 -s --delete-bad-limit=1024000000 -WSelectNewComplexAHPNS -H'(20*ConjectureRelativeSymbolWeight(ConstPrio,0.1, 100, 100, 100, 100, 1.5, 1.5, 1.5),1*Refinedweight(PreferNonGoals,2,1,2,3,0.8),1*FIFOWeight(ConstPrio))'"
tRp638
g2
(g8
S'\x8d\x97n\x12\x83`7@'
tRp639
tp640
a(g2
(g3
(S'S10'
I0
I1
tRp641
(I3
S'|'
NNNI10
I1
I0
tbS'LAT240-1.p'
tRp642
g2
(g3
(S'S454'
I0
I1
tRp643
(I3
S'|'
NNNI454
I1
I0
tbS"--definitional-cnf=24 --tstp-in --presat-simplify --split-reuse-defs --split-clauses=4 --simul-paramod --forward-context-sr --destructive-er-aggressive --destructive-er --prefer-initial-clauses -tKBO6 -winvfreqrank -c1 -Ginvfreqconjmax -F1 -s --delete-bad-limit=1024000000 -WSelectNewComplexAHPNS -H'(20*ConjectureRelativeSymbolWeight(ConstPrio,0.1, 100, 100, 100, 100, 1.5, 1.5, 1.5),1*Refinedweight(PreferNonGoals,2,1,2,3,0.8),1*FIFOWeight(ConstPrio))'"
tRp644
g2
(g8
S'\x10X9\xb4\xc86:@'
tRp645
tp646
a(g2
(g3
(S'S10'
I0
I1
tRp647
(I3
S'|'
NNNI10
I1
I0
tbS'SWB031+1.p'
tRp648
g2
(g3
(S'S454'
I0
I1
tRp649
(I3
S'|'
NNNI454
I1
I0
tbS"--definitional-cnf=24 --tstp-in --presat-simplify --split-reuse-defs --split-clauses=4 --simul-paramod --forward-context-sr --destructive-er-aggressive --destructive-er --prefer-initial-clauses -tKBO6 -winvfreqrank -c1 -Ginvfreqconjmax -F1 -s --delete-bad-limit=1024000000 -WSelectNewComplexAHPNS -H'(20*ConjectureRelativeSymbolWeight(ConstPrio,0.1, 100, 100, 100, 100, 1.5, 1.5, 1.5),1*Refinedweight(PreferNonGoals,2,1,2,3,0.8),1*FIFOWeight(ConstPrio))'"
tRp650
g2
(g8
S'm\xe7\xfb\xa9\xf1\x12/@'
tRp651
tp652
a.