(lp1
(I16
(lp2
(cnumpy.core.multiarray
scalar
p3
(cnumpy
dtype
p4
(S'S10'
I0
I1
tRp5
(I3
S'|'
NNNI10
I1
I0
tbS'GEO285+1.p'
tRp6
g3
(g4
(S'S531'
I0
I1
tRp7
(I3
S'|'
NNNI531
I1
I0
tbS"--definitional-cnf=24 --tstp-in --split-clauses=7 --split-reuse-defs --simul-paramod --forward-context-sr --destructive-er-aggressive --destructive-er --presat-simplify --prefer-initial-clauses -tKBO6 -winvfreqrank -c1 -Ginvfreqconjmax -F1 -s --delete-bad-limit=1024000000 -WSelectMaxLComplexAvoidPosPred -H'(4*RelevanceLevelWeight2(SimulateSOS,0,2,1,2,100,100,100,400,1.5,1.5,1),3*ConjectureGeneralSymbolWeight(PreferNonGoals,200,100,200,50,50,1,100,1.5,1.5,1),1*Clauseweight(PreferProcessed,1,1,1),1*FIFOWeight(PreferProcessed))'"
tRp8
g3
(g4
(S'f8'
I0
I1
tRp9
(I3
S'<'
NNNI-1
I-1
I0
tbS'\x14\xaeG\xe1z\x14\xee?'
tRp10
F0.57999999999999996
tp11
a(g3
(g4
(S'S10'
I0
I1
tRp12
(I3
S'|'
NNNI10
I1
I0
tbS'RNG060+2.p'
tRp13
g3
(g4
(S'S531'
I0
I1
tRp14
(I3
S'|'
NNNI531
I1
I0
tbS"--definitional-cnf=24 --tstp-in --split-clauses=7 --split-reuse-defs --simul-paramod --forward-context-sr --destructive-er-aggressive --destructive-er --presat-simplify --prefer-initial-clauses -tKBO6 -winvfreqrank -c1 -Ginvfreqconjmax -F1 -s --delete-bad-limit=1024000000 -WSelectMaxLComplexAvoidPosPred -H'(4*RelevanceLevelWeight2(SimulateSOS,0,2,1,2,100,100,100,400,1.5,1.5,1),3*ConjectureGeneralSymbolWeight(PreferNonGoals,200,100,200,50,50,1,100,1.5,1.5,1),1*Clauseweight(PreferProcessed,1,1,1),1*FIFOWeight(PreferProcessed))'"
tRp15
g3
(g9
S'\x81\x95C\x8bl\xe7\xef?'
tRp16
F0.71999999999999997
tp17
a(g3
(g4
(S'S10'
I0
I1
tRp18
(I3
S'|'
NNNI10
I1
I0
tbS'FLD002-3.p'
tRp19
g3
(g4
(S'S531'
I0
I1
tRp20
(I3
S'|'
NNNI531
I1
I0
tbS"--definitional-cnf=24 --tstp-in --split-clauses=7 --split-reuse-defs --simul-paramod --forward-context-sr --destructive-er-aggressive --destructive-er --presat-simplify --prefer-initial-clauses -tKBO6 -winvfreqrank -c1 -Ginvfreqconjmax -F1 -s --delete-bad-limit=1024000000 -WSelectMaxLComplexAvoidPosPred -H'(4*RelevanceLevelWeight2(SimulateSOS,0,2,1,2,100,100,100,400,1.5,1.5,1),3*ConjectureGeneralSymbolWeight(PreferNonGoals,200,100,200,50,50,1,100,1.5,1.5,1),1*Clauseweight(PreferProcessed,1,1,1),1*FIFOWeight(PreferProcessed))'"
tRp21
g3
(g9
S'\x12\x83\xc0\xca\xa1E\xe2?'
tRp22
F0.45000000000000001
tp23
a(g3
(g4
(S'S10'
I0
I1
tRp24
(I3
S'|'
NNNI10
I1
I0
tbS'SWW354+1.p'
tRp25
g3
(g4
(S'S531'
I0
I1
tRp26
(I3
S'|'
NNNI531
I1
I0
tbS"--definitional-cnf=24 --tstp-in --split-clauses=7 --split-reuse-defs --simul-paramod --forward-context-sr --destructive-er-aggressive --destructive-er --presat-simplify --prefer-initial-clauses -tKBO6 -winvfreqrank -c1 -Ginvfreqconjmax -F1 -s --delete-bad-limit=1024000000 -WSelectMaxLComplexAvoidPosPred -H'(4*RelevanceLevelWeight2(SimulateSOS,0,2,1,2,100,100,100,400,1.5,1.5,1),3*ConjectureGeneralSymbolWeight(PreferNonGoals,200,100,200,50,50,1,100,1.5,1.5,1),1*Clauseweight(PreferProcessed,1,1,1),1*FIFOWeight(PreferProcessed))'"
tRp27
g3
(g9
S'sh\x91\xed|_N@'
tRp28
F51.340000000000003
tp29
a(g3
(g4
(S'S10'
I0
I1
tRp30
(I3
S'|'
NNNI10
I1
I0
tbS'LAT296+1.p'
tRp31
g3
(g4
(S'S531'
I0
I1
tRp32
(I3
S'|'
NNNI531
I1
I0
tbS"--definitional-cnf=24 --tstp-in --split-clauses=7 --split-reuse-defs --simul-paramod --forward-context-sr --destructive-er-aggressive --destructive-er --presat-simplify --prefer-initial-clauses -tKBO6 -winvfreqrank -c1 -Ginvfreqconjmax -F1 -s --delete-bad-limit=1024000000 -WSelectMaxLComplexAvoidPosPred -H'(4*RelevanceLevelWeight2(SimulateSOS,0,2,1,2,100,100,100,400,1.5,1.5,1),3*ConjectureGeneralSymbolWeight(PreferNonGoals,200,100,200,50,50,1,100,1.5,1.5,1),1*Clauseweight(PreferProcessed,1,1,1),1*FIFOWeight(PreferProcessed))'"
tRp33
g3
(g9
S'\x85\xebQ\xb8\x1eEX@'
tRp34
F99.879999999999995
tp35
a(g3
(g4
(S'S10'
I0
I1
tRp36
(I3
S'|'
NNNI10
I1
I0
tbS'SWW372+1.p'
tRp37
g3
(g4
(S'S531'
I0
I1
tRp38
(I3
S'|'
NNNI531
I1
I0
tbS"--definitional-cnf=24 --tstp-in --split-clauses=7 --split-reuse-defs --simul-paramod --forward-context-sr --destructive-er-aggressive --destructive-er --presat-simplify --prefer-initial-clauses -tKBO6 -winvfreqrank -c1 -Ginvfreqconjmax -F1 -s --delete-bad-limit=1024000000 -WSelectMaxLComplexAvoidPosPred -H'(4*RelevanceLevelWeight2(SimulateSOS,0,2,1,2,100,100,100,400,1.5,1.5,1),3*ConjectureGeneralSymbolWeight(PreferNonGoals,200,100,200,50,50,1,100,1.5,1.5,1),1*Clauseweight(PreferProcessed,1,1,1),1*FIFOWeight(PreferProcessed))'"
tRp39
g3
(g9
S'\xecQ\xb8\x1e\x85\x8bO@'
tRp40
F63.960000000000001
tp41
a(g3
(g4
(S'S10'
I0
I1
tRp42
(I3
S'|'
NNNI10
I1
I0
tbS'LCL050-1.p'
tRp43
g3
(g4
(S'S531'
I0
I1
tRp44
(I3
S'|'
NNNI531
I1
I0
tbS"--definitional-cnf=24 --tstp-in --split-clauses=7 --split-reuse-defs --simul-paramod --forward-context-sr --destructive-er-aggressive --destructive-er --presat-simplify --prefer-initial-clauses -tKBO6 -winvfreqrank -c1 -Ginvfreqconjmax -F1 -s --delete-bad-limit=1024000000 -WSelectMaxLComplexAvoidPosPred -H'(4*RelevanceLevelWeight2(SimulateSOS,0,2,1,2,100,100,100,400,1.5,1.5,1),3*ConjectureGeneralSymbolWeight(PreferNonGoals,200,100,200,50,50,1,100,1.5,1.5,1),1*Clauseweight(PreferProcessed,1,1,1),1*FIFOWeight(PreferProcessed))'"
tRp45
g3
(g9
S'\xdd$\x06\x81\x95\x0fd@'
tRp46
F89.450000000000003
tp47
a(g3
(g4
(S'S10'
I0
I1
tRp48
(I3
S'|'
NNNI10
I1
I0
tbS'SWC345+1.p'
tRp49
g3
(g4
(S'S531'
I0
I1
tRp50
(I3
S'|'
NNNI531
I1
I0
tbS"--definitional-cnf=24 --tstp-in --split-clauses=7 --split-reuse-defs --simul-paramod --forward-context-sr --destructive-er-aggressive --destructive-er --presat-simplify --prefer-initial-clauses -tKBO6 -winvfreqrank -c1 -Ginvfreqconjmax -F1 -s --delete-bad-limit=1024000000 -WSelectMaxLComplexAvoidPosPred -H'(4*RelevanceLevelWeight2(SimulateSOS,0,2,1,2,100,100,100,400,1.5,1.5,1),3*ConjectureGeneralSymbolWeight(PreferNonGoals,200,100,200,50,50,1,100,1.5,1.5,1),1*Clauseweight(PreferProcessed,1,1,1),1*FIFOWeight(PreferProcessed))'"
tRp51
g3
(g9
S'\xfe\xd4x\xe9&Ud@'
tRp52
F166.08000000000001
tp53
a(g3
(g4
(S'S10'
I0
I1
tRp54
(I3
S'|'
NNNI10
I1
I0
tbS'SWC329+1.p'
tRp55
g3
(g4
(S'S531'
I0
I1
tRp56
(I3
S'|'
NNNI531
I1
I0
tbS"--definitional-cnf=24 --tstp-in --split-clauses=7 --split-reuse-defs --simul-paramod --forward-context-sr --destructive-er-aggressive --destructive-er --presat-simplify --prefer-initial-clauses -tKBO6 -winvfreqrank -c1 -Ginvfreqconjmax -F1 -s --delete-bad-limit=1024000000 -WSelectMaxLComplexAvoidPosPred -H'(4*RelevanceLevelWeight2(SimulateSOS,0,2,1,2,100,100,100,400,1.5,1.5,1),3*ConjectureGeneralSymbolWeight(PreferNonGoals,200,100,200,50,50,1,100,1.5,1.5,1),1*Clauseweight(PreferProcessed,1,1,1),1*FIFOWeight(PreferProcessed))'"
tRp57
g3
(g9
S'm\xe7\xfb\xa9\xf1\xfec@'
tRp58
F166.24000000000001
tp59
a(g3
(g4
(S'S10'
I0
I1
tRp60
(I3
S'|'
NNNI10
I1
I0
tbS'CSR041+3.p'
tRp61
g3
(g4
(S'S531'
I0
I1
tRp62
(I3
S'|'
NNNI531
I1
I0
tbS"--definitional-cnf=24 --tstp-in --split-clauses=7 --split-reuse-defs --simul-paramod --forward-context-sr --destructive-er-aggressive --destructive-er --presat-simplify --prefer-initial-clauses -tKBO6 -winvfreqrank -c1 -Ginvfreqconjmax -F1 -s --delete-bad-limit=1024000000 -WSelectMaxLComplexAvoidPosPred -H'(4*RelevanceLevelWeight2(SimulateSOS,0,2,1,2,100,100,100,400,1.5,1.5,1),3*ConjectureGeneralSymbolWeight(PreferNonGoals,200,100,200,50,50,1,100,1.5,1.5,1),1*Clauseweight(PreferProcessed,1,1,1),1*FIFOWeight(PreferProcessed))'"
tRp63
g3
(g9
S'\xf8S\xe3\xa5\x9b\xc4\xf8?'
tRp64
F1.46
tp65
a(g3
(g4
(S'S10'
I0
I1
tRp66
(I3
S'|'
NNNI10
I1
I0
tbS'ROB005-1.p'
tRp67
g3
(g4
(S'S531'
I0
I1
tRp68
(I3
S'|'
NNNI531
I1
I0
tbS"--definitional-cnf=24 --tstp-in --split-clauses=7 --split-reuse-defs --simul-paramod --forward-context-sr --destructive-er-aggressive --destructive-er --presat-simplify --prefer-initial-clauses -tKBO6 -winvfreqrank -c1 -Ginvfreqconjmax -F1 -s --delete-bad-limit=1024000000 -WSelectMaxLComplexAvoidPosPred -H'(4*RelevanceLevelWeight2(SimulateSOS,0,2,1,2,100,100,100,400,1.5,1.5,1),3*ConjectureGeneralSymbolWeight(PreferNonGoals,200,100,200,50,50,1,100,1.5,1.5,1),1*Clauseweight(PreferProcessed,1,1,1),1*FIFOWeight(PreferProcessed))'"
tRp69
g3
(g9
S'\xd1"\xdb\xf9~j\x19@'
tRp70
F6.0599999999999996
tp71
a(g3
(g4
(S'S10'
I0
I1
tRp72
(I3
S'|'
NNNI10
I1
I0
tbS'CSR106+7.p'
tRp73
g3
(g4
(S'S531'
I0
I1
tRp74
(I3
S'|'
NNNI531
I1
I0
tbS"--definitional-cnf=24 --tstp-in --split-clauses=7 --split-reuse-defs --simul-paramod --forward-context-sr --destructive-er-aggressive --destructive-er --presat-simplify --prefer-initial-clauses -tKBO6 -winvfreqrank -c1 -Ginvfreqconjmax -F1 -s --delete-bad-limit=1024000000 -WSelectMaxLComplexAvoidPosPred -H'(4*RelevanceLevelWeight2(SimulateSOS,0,2,1,2,100,100,100,400,1.5,1.5,1),3*ConjectureGeneralSymbolWeight(PreferNonGoals,200,100,200,50,50,1,100,1.5,1.5,1),1*Clauseweight(PreferProcessed,1,1,1),1*FIFOWeight(PreferProcessed))'"
tRp75
g3
(g9
S'\x81\x95C\x8bl\xe7\x1c@'
tRp76
F7.8600000000000003
tp77
a(g3
(g4
(S'S10'
I0
I1
tRp78
(I3
S'|'
NNNI10
I1
I0
tbS'KLE019+1.p'
tRp79
g3
(g4
(S'S531'
I0
I1
tRp80
(I3
S'|'
NNNI531
I1
I0
tbS"--definitional-cnf=24 --tstp-in --split-clauses=7 --split-reuse-defs --simul-paramod --forward-context-sr --destructive-er-aggressive --destructive-er --presat-simplify --prefer-initial-clauses -tKBO6 -winvfreqrank -c1 -Ginvfreqconjmax -F1 -s --delete-bad-limit=1024000000 -WSelectMaxLComplexAvoidPosPred -H'(4*RelevanceLevelWeight2(SimulateSOS,0,2,1,2,100,100,100,400,1.5,1.5,1),3*ConjectureGeneralSymbolWeight(PreferNonGoals,200,100,200,50,50,1,100,1.5,1.5,1),1*Clauseweight(PreferProcessed,1,1,1),1*FIFOWeight(PreferProcessed))'"
tRp81
g3
(g9
S'o\x12\x83\xc0\xcakp@'
tRp82
F224.34
tp83
a(g3
(g4
(S'S14'
I0
I1
tRp84
(I3
S'|'
NNNI14
I1
I0
tbS'SWV501-1.040.p'
tRp85
g3
(g4
(S'S531'
I0
I1
tRp86
(I3
S'|'
NNNI531
I1
I0
tbS"--definitional-cnf=24 --tstp-in --split-clauses=7 --split-reuse-defs --simul-paramod --forward-context-sr --destructive-er-aggressive --destructive-er --presat-simplify --prefer-initial-clauses -tKBO6 -winvfreqrank -c1 -Ginvfreqconjmax -F1 -s --delete-bad-limit=1024000000 -WSelectMaxLComplexAvoidPosPred -H'(4*RelevanceLevelWeight2(SimulateSOS,0,2,1,2,100,100,100,400,1.5,1.5,1),3*ConjectureGeneralSymbolWeight(PreferNonGoals,200,100,200,50,50,1,100,1.5,1.5,1),1*Clauseweight(PreferProcessed,1,1,1),1*FIFOWeight(PreferProcessed))'"
tRp87
g3
(g9
S'\xf4\xfd\xd4x\xe9\x02r@'
tRp88
F169.41999999999999
tp89
a(g3
(g4
(S'S10'
I0
I1
tRp90
(I3
S'|'
NNNI10
I1
I0
tbS'SWW332+1.p'
tRp91
g3
(g4
(S'S531'
I0
I1
tRp92
(I3
S'|'
NNNI531
I1
I0
tbS"--definitional-cnf=24 --tstp-in --split-clauses=7 --split-reuse-defs --simul-paramod --forward-context-sr --destructive-er-aggressive --destructive-er --presat-simplify --prefer-initial-clauses -tKBO6 -winvfreqrank -c1 -Ginvfreqconjmax -F1 -s --delete-bad-limit=1024000000 -WSelectMaxLComplexAvoidPosPred -H'(4*RelevanceLevelWeight2(SimulateSOS,0,2,1,2,100,100,100,400,1.5,1.5,1),3*ConjectureGeneralSymbolWeight(PreferNonGoals,200,100,200,50,50,1,100,1.5,1.5,1),1*Clauseweight(PreferProcessed,1,1,1),1*FIFOWeight(PreferProcessed))'"
tRp93
g3
(g9
S'\x00\x00\x00\x00\x00\xe6p@'
tRp94
F249.24000000000001
tp95
a(g3
(g4
(S'S10'
I0
I1
tRp96
(I3
S'|'
NNNI10
I1
I0
tbS'GEO279+1.p'
tRp97
g3
(g4
(S'S531'
I0
I1
tRp98
(I3
S'|'
NNNI531
I1
I0
tbS"--definitional-cnf=24 --tstp-in --split-clauses=7 --split-reuse-defs --simul-paramod --forward-context-sr --destructive-er-aggressive --destructive-er --presat-simplify --prefer-initial-clauses -tKBO6 -winvfreqrank -c1 -Ginvfreqconjmax -F1 -s --delete-bad-limit=1024000000 -WSelectMaxLComplexAvoidPosPred -H'(4*RelevanceLevelWeight2(SimulateSOS,0,2,1,2,100,100,100,400,1.5,1.5,1),3*ConjectureGeneralSymbolWeight(PreferNonGoals,200,100,200,50,50,1,100,1.5,1.5,1),1*Clauseweight(PreferProcessed,1,1,1),1*FIFOWeight(PreferProcessed))'"
tRp99
g3
(g9
S'\xfc\xa9\xf1\xd2M\xaa`@'
tRp100
F63.909999999999997
tp101
a(g3
(g4
(S'S10'
I0
I1
tRp102
(I3
S'|'
NNNI10
I1
I0
tbS'SWC066-1.p'
tRp103
g3
(g4
(S'S531'
I0
I1
tRp104
(I3
S'|'
NNNI531
I1
I0
tbS"--definitional-cnf=24 --tstp-in --split-clauses=7 --split-reuse-defs --simul-paramod --forward-context-sr --destructive-er-aggressive --destructive-er --presat-simplify --prefer-initial-clauses -tKBO6 -winvfreqrank -c1 -Ginvfreqconjmax -F1 -s --delete-bad-limit=1024000000 -WSelectMaxLComplexAvoidPosPred -H'(4*RelevanceLevelWeight2(SimulateSOS,0,2,1,2,100,100,100,400,1.5,1.5,1),3*ConjectureGeneralSymbolWeight(PreferNonGoals,200,100,200,50,50,1,100,1.5,1.5,1),1*Clauseweight(PreferProcessed,1,1,1),1*FIFOWeight(PreferProcessed))'"
tRp105
g3
(g9
S'\xe9&1\x08\xac|]@'
tRp106
F94.180000000000007
tp107
a(g3
(g4
(S'S10'
I0
I1
tRp108
(I3
S'|'
NNNI10
I1
I0
tbS'NUM297+1.p'
tRp109
g3
(g4
(S'S531'
I0
I1
tRp110
(I3
S'|'
NNNI531
I1
I0
tbS"--definitional-cnf=24 --tstp-in --split-clauses=7 --split-reuse-defs --simul-paramod --forward-context-sr --destructive-er-aggressive --destructive-er --presat-simplify --prefer-initial-clauses -tKBO6 -winvfreqrank -c1 -Ginvfreqconjmax -F1 -s --delete-bad-limit=1024000000 -WSelectMaxLComplexAvoidPosPred -H'(4*RelevanceLevelWeight2(SimulateSOS,0,2,1,2,100,100,100,400,1.5,1.5,1),3*ConjectureGeneralSymbolWeight(PreferNonGoals,200,100,200,50,50,1,100,1.5,1.5,1),1*Clauseweight(PreferProcessed,1,1,1),1*FIFOWeight(PreferProcessed))'"
tRp111
g3
(g9
S'1\x08\xac\x1cZLa@'
tRp112
F125.67
tp113
a(g3
(g4
(S'S10'
I0
I1
tRp114
(I3
S'|'
NNNI10
I1
I0
tbS'ANA039-1.p'
tRp115
g3
(g4
(S'S531'
I0
I1
tRp116
(I3
S'|'
NNNI531
I1
I0
tbS"--definitional-cnf=24 --tstp-in --split-clauses=7 --split-reuse-defs --simul-paramod --forward-context-sr --destructive-er-aggressive --destructive-er --presat-simplify --prefer-initial-clauses -tKBO6 -winvfreqrank -c1 -Ginvfreqconjmax -F1 -s --delete-bad-limit=1024000000 -WSelectMaxLComplexAvoidPosPred -H'(4*RelevanceLevelWeight2(SimulateSOS,0,2,1,2,100,100,100,400,1.5,1.5,1),3*ConjectureGeneralSymbolWeight(PreferNonGoals,200,100,200,50,50,1,100,1.5,1.5,1),1*Clauseweight(PreferProcessed,1,1,1),1*FIFOWeight(PreferProcessed))'"
tRp117
g3
(g9
S'\xb4\xc8v\xbe\x9f\xa6k@'
tRp118
F200.96000000000001
tp119
a(g3
(g4
(S'S10'
I0
I1
tRp120
(I3
S'|'
NNNI10
I1
I0
tbS'SCT043-1.p'
tRp121
g3
(g4
(S'S531'
I0
I1
tRp122
(I3
S'|'
NNNI531
I1
I0
tbS"--definitional-cnf=24 --tstp-in --split-clauses=7 --split-reuse-defs --simul-paramod --forward-context-sr --destructive-er-aggressive --destructive-er --presat-simplify --prefer-initial-clauses -tKBO6 -winvfreqrank -c1 -Ginvfreqconjmax -F1 -s --delete-bad-limit=1024000000 -WSelectMaxLComplexAvoidPosPred -H'(4*RelevanceLevelWeight2(SimulateSOS,0,2,1,2,100,100,100,400,1.5,1.5,1),3*ConjectureGeneralSymbolWeight(PreferNonGoals,200,100,200,50,50,1,100,1.5,1.5,1),1*Clauseweight(PreferProcessed,1,1,1),1*FIFOWeight(PreferProcessed))'"
tRp123
g3
(g9
S'\x00\x00\x00\x00\x00\\m@'
tRp124
F249.66
tp125
a(g3
(g4
(S'S10'
I0
I1
tRp126
(I3
S'|'
NNNI10
I1
I0
tbS'SWV234+1.p'
tRp127
g3
(g4
(S'S531'
I0
I1
tRp128
(I3
S'|'
NNNI531
I1
I0
tbS"--definitional-cnf=24 --tstp-in --split-clauses=7 --split-reuse-defs --simul-paramod --forward-context-sr --destructive-er-aggressive --destructive-er --presat-simplify --prefer-initial-clauses -tKBO6 -winvfreqrank -c1 -Ginvfreqconjmax -F1 -s --delete-bad-limit=1024000000 -WSelectMaxLComplexAvoidPosPred -H'(4*RelevanceLevelWeight2(SimulateSOS,0,2,1,2,100,100,100,400,1.5,1.5,1),3*ConjectureGeneralSymbolWeight(PreferNonGoals,200,100,200,50,50,1,100,1.5,1.5,1),1*Clauseweight(PreferProcessed,1,1,1),1*FIFOWeight(PreferProcessed))'"
tRp129
g3
(g9
S'q=\n\xd7\xa3\xfcl@'
tRp130
F301.05000000000001
tp131
a(g3
(g4
(S'S10'
I0
I1
tRp132
(I3
S'|'
NNNI10
I1
I0
tbS'SWB044+1.p'
tRp133
g3
(g4
(S'S531'
I0
I1
tRp134
(I3
S'|'
NNNI531
I1
I0
tbS"--definitional-cnf=24 --tstp-in --split-clauses=7 --split-reuse-defs --simul-paramod --forward-context-sr --destructive-er-aggressive --destructive-er --presat-simplify --prefer-initial-clauses -tKBO6 -winvfreqrank -c1 -Ginvfreqconjmax -F1 -s --delete-bad-limit=1024000000 -WSelectMaxLComplexAvoidPosPred -H'(4*RelevanceLevelWeight2(SimulateSOS,0,2,1,2,100,100,100,400,1.5,1.5,1),3*ConjectureGeneralSymbolWeight(PreferNonGoals,200,100,200,50,50,1,100,1.5,1.5,1),1*Clauseweight(PreferProcessed,1,1,1),1*FIFOWeight(PreferProcessed))'"
tRp135
g3
(g9
S'33333SJ@'
tRp136
F58.359999999999999
tp137
a(g3
(g4
(S'S10'
I0
I1
tRp138
(I3
S'|'
NNNI10
I1
I0
tbS'ALG156+1.p'
tRp139
g3
(g4
(S'S531'
I0
I1
tRp140
(I3
S'|'
NNNI531
I1
I0
tbS"--definitional-cnf=24 --tstp-in --split-clauses=7 --split-reuse-defs --simul-paramod --forward-context-sr --destructive-er-aggressive --destructive-er --presat-simplify --prefer-initial-clauses -tKBO6 -winvfreqrank -c1 -Ginvfreqconjmax -F1 -s --delete-bad-limit=1024000000 -WSelectMaxLComplexAvoidPosPred -H'(4*RelevanceLevelWeight2(SimulateSOS,0,2,1,2,100,100,100,400,1.5,1.5,1),3*ConjectureGeneralSymbolWeight(PreferNonGoals,200,100,200,50,50,1,100,1.5,1.5,1),1*Clauseweight(PreferProcessed,1,1,1),1*FIFOWeight(PreferProcessed))'"
tRp141
g3
(g9
S'T\xe3\xa5\x9b\xc4\xe0D@'
tRp142
F62.770000000000003
tp143
a(g3
(g4
(S'S10'
I0
I1
tRp144
(I3
S'|'
NNNI10
I1
I0
tbS'SYN450-1.p'
tRp145
g3
(g4
(S'S531'
I0
I1
tRp146
(I3
S'|'
NNNI531
I1
I0
tbS"--definitional-cnf=24 --tstp-in --split-clauses=7 --split-reuse-defs --simul-paramod --forward-context-sr --destructive-er-aggressive --destructive-er --presat-simplify --prefer-initial-clauses -tKBO6 -winvfreqrank -c1 -Ginvfreqconjmax -F1 -s --delete-bad-limit=1024000000 -WSelectMaxLComplexAvoidPosPred -H'(4*RelevanceLevelWeight2(SimulateSOS,0,2,1,2,100,100,100,400,1.5,1.5,1),3*ConjectureGeneralSymbolWeight(PreferNonGoals,200,100,200,50,50,1,100,1.5,1.5,1),1*Clauseweight(PreferProcessed,1,1,1),1*FIFOWeight(PreferProcessed))'"
tRp147
g3
(g9
S'd;\xdfO\x8d7>@'
tRp148
F43.539999999999999
tp149
a(g3
(g4
(S'S10'
I0
I1
tRp150
(I3
S'|'
NNNI10
I1
I0
tbS'REL026-3.p'
tRp151
g3
(g4
(S'S531'
I0
I1
tRp152
(I3
S'|'
NNNI531
I1
I0
tbS"--definitional-cnf=24 --tstp-in --split-clauses=7 --split-reuse-defs --simul-paramod --forward-context-sr --destructive-er-aggressive --destructive-er --presat-simplify --prefer-initial-clauses -tKBO6 -winvfreqrank -c1 -Ginvfreqconjmax -F1 -s --delete-bad-limit=1024000000 -WSelectMaxLComplexAvoidPosPred -H'(4*RelevanceLevelWeight2(SimulateSOS,0,2,1,2,100,100,100,400,1.5,1.5,1),3*ConjectureGeneralSymbolWeight(PreferNonGoals,200,100,200,50,50,1,100,1.5,1.5,1),1*Clauseweight(PreferProcessed,1,1,1),1*FIFOWeight(PreferProcessed))'"
tRp153
g3
(g9
S'\xb8\x1e\x85\xebQX3@'
tRp154
F16.469999999999999
tp155
a(g3
(g4
(S'S10'
I0
I1
tRp156
(I3
S'|'
NNNI10
I1
I0
tbS'FLD013-1.p'
tRp157
g3
(g4
(S'S531'
I0
I1
tRp158
(I3
S'|'
NNNI531
I1
I0
tbS"--definitional-cnf=24 --tstp-in --split-clauses=7 --split-reuse-defs --simul-paramod --forward-context-sr --destructive-er-aggressive --destructive-er --presat-simplify --prefer-initial-clauses -tKBO6 -winvfreqrank -c1 -Ginvfreqconjmax -F1 -s --delete-bad-limit=1024000000 -WSelectMaxLComplexAvoidPosPred -H'(4*RelevanceLevelWeight2(SimulateSOS,0,2,1,2,100,100,100,400,1.5,1.5,1),3*ConjectureGeneralSymbolWeight(PreferNonGoals,200,100,200,50,50,1,100,1.5,1.5,1),1*Clauseweight(PreferProcessed,1,1,1),1*FIFOWeight(PreferProcessed))'"
tRp159
g3
(g9
S'\xdb\xf9~j\xbc\x140@'
tRp160
F16.18
tp161
a(g3
(g4
(S'S10'
I0
I1
tRp162
(I3
S'|'
NNNI10
I1
I0
tbS'SWW216+1.p'
tRp163
g3
(g4
(S'S531'
I0
I1
tRp164
(I3
S'|'
NNNI531
I1
I0
tbS"--definitional-cnf=24 --tstp-in --split-clauses=7 --split-reuse-defs --simul-paramod --forward-context-sr --destructive-er-aggressive --destructive-er --presat-simplify --prefer-initial-clauses -tKBO6 -winvfreqrank -c1 -Ginvfreqconjmax -F1 -s --delete-bad-limit=1024000000 -WSelectMaxLComplexAvoidPosPred -H'(4*RelevanceLevelWeight2(SimulateSOS,0,2,1,2,100,100,100,400,1.5,1.5,1),3*ConjectureGeneralSymbolWeight(PreferNonGoals,200,100,200,50,50,1,100,1.5,1.5,1),1*Clauseweight(PreferProcessed,1,1,1),1*FIFOWeight(PreferProcessed))'"
tRp165
g3
(g9
S'9\xb4\xc8v\xbe\x1f-@'
tRp166
F17.550000000000001
tp167
a(g3
(g4
(S'S10'
I0
I1
tRp168
(I3
S'|'
NNNI10
I1
I0
tbS'GRP201-1.p'
tRp169
g3
(g4
(S'S434'
I0
I1
tRp170
(I3
S'|'
NNNI434
I1
I0
tbS"--definitional-cnf=24 -s --delete-bad-limit=1024000000 -F1 --simul-paramod -WSelectComplexAHP --split-clauses=4 --split-reuse-defs --forward-context-sr --destructive-er-aggressive --destructive-er -tKBO6 -winvfreqrank -c1 -Ginvfreq --prefer-initial-clauses --tstp-in -H'(10*Refinedweight(PreferGoals,1,2,2,2,0.5),10*Refinedweight(PreferNonGoals,2,1,2,2,2),3*OrientLMaxWeight(ConstPrio,2,1,2,1,1),2*ClauseWeightAge(ConstPrio,1,1,1,3))'"
tRp171
g3
(g9
S'\xecQ\xb8\x1e\x85\xeb\xe1?'
tRp172
F0.69999999999999996
tp173
a(g3
(g4
(S'S10'
I0
I1
tRp174
(I3
S'|'
NNNI10
I1
I0
tbS'CSR103+1.p'
tRp175
g3
(g4
(S'S434'
I0
I1
tRp176
(I3
S'|'
NNNI434
I1
I0
tbS"--definitional-cnf=24 -s --delete-bad-limit=1024000000 -F1 --simul-paramod -WSelectComplexAHP --split-clauses=4 --split-reuse-defs --forward-context-sr --destructive-er-aggressive --destructive-er -tKBO6 -winvfreqrank -c1 -Ginvfreq --prefer-initial-clauses --tstp-in -H'(10*Refinedweight(PreferGoals,1,2,2,2,0.5),10*Refinedweight(PreferNonGoals,2,1,2,2,2),3*OrientLMaxWeight(ConstPrio,2,1,2,1,1),2*ClauseWeightAge(ConstPrio,1,1,1,3))'"
tRp177
g3
(g9
S'\xb8\x1e\x85\xebQ\xb8\xe6?'
tRp178
F0.68000000000000005
tp179
a(g3
(g4
(S'S10'
I0
I1
tRp180
(I3
S'|'
NNNI10
I1
I0
tbS'CSR048+3.p'
tRp181
g3
(g4
(S'S434'
I0
I1
tRp182
(I3
S'|'
NNNI434
I1
I0
tbS"--definitional-cnf=24 -s --delete-bad-limit=1024000000 -F1 --simul-paramod -WSelectComplexAHP --split-clauses=4 --split-reuse-defs --forward-context-sr --destructive-er-aggressive --destructive-er -tKBO6 -winvfreqrank -c1 -Ginvfreq --prefer-initial-clauses --tstp-in -H'(10*Refinedweight(PreferGoals,1,2,2,2,0.5),10*Refinedweight(PreferNonGoals,2,1,2,2,2),3*OrientLMaxWeight(ConstPrio,2,1,2,1,1),2*ClauseWeightAge(ConstPrio,1,1,1,3))'"
tRp183
g3
(g9
S'\x12\x83\xc0\xca\xa1E\xe6?'
tRp184
F0.69999999999999996
tp185
a(g3
(g4
(S'S10'
I0
I1
tRp186
(I3
S'|'
NNNI10
I1
I0
tbS'SWV307-1.p'
tRp187
g3
(g4
(S'S434'
I0
I1
tRp188
(I3
S'|'
NNNI434
I1
I0
tbS"--definitional-cnf=24 -s --delete-bad-limit=1024000000 -F1 --simul-paramod -WSelectComplexAHP --split-clauses=4 --split-reuse-defs --forward-context-sr --destructive-er-aggressive --destructive-er -tKBO6 -winvfreqrank -c1 -Ginvfreq --prefer-initial-clauses --tstp-in -H'(10*Refinedweight(PreferGoals,1,2,2,2,0.5),10*Refinedweight(PreferNonGoals,2,1,2,2,2),3*OrientLMaxWeight(ConstPrio,2,1,2,1,1),2*ClauseWeightAge(ConstPrio,1,1,1,3))'"
tRp189
g3
(g9
S'\x02+\x87\x16\xd9\x9eU@'
tRp190
F96.769999999999996
tp191
a(g3
(g4
(S'S10'
I0
I1
tRp192
(I3
S'|'
NNNI10
I1
I0
tbS'NUM425+1.p'
tRp193
g3
(g4
(S'S434'
I0
I1
tRp194
(I3
S'|'
NNNI434
I1
I0
tbS"--definitional-cnf=24 -s --delete-bad-limit=1024000000 -F1 --simul-paramod -WSelectComplexAHP --split-clauses=4 --split-reuse-defs --forward-context-sr --destructive-er-aggressive --destructive-er -tKBO6 -winvfreqrank -c1 -Ginvfreq --prefer-initial-clauses --tstp-in -H'(10*Refinedweight(PreferGoals,1,2,2,2,0.5),10*Refinedweight(PreferNonGoals,2,1,2,2,2),3*OrientLMaxWeight(ConstPrio,2,1,2,1,1),2*ClauseWeightAge(ConstPrio,1,1,1,3))'"
tRp195
g3
(g9
S'\xf4\xfd\xd4x\xe9\xeeQ@'
tRp196
F61.399999999999999
tp197
a(g3
(g4
(S'S10'
I0
I1
tRp198
(I3
S'|'
NNNI10
I1
I0
tbS'NUM467+2.p'
tRp199
g3
(g4
(S'S434'
I0
I1
tRp200
(I3
S'|'
NNNI434
I1
I0
tbS"--definitional-cnf=24 -s --delete-bad-limit=1024000000 -F1 --simul-paramod -WSelectComplexAHP --split-clauses=4 --split-reuse-defs --forward-context-sr --destructive-er-aggressive --destructive-er -tKBO6 -winvfreqrank -c1 -Ginvfreq --prefer-initial-clauses --tstp-in -H'(10*Refinedweight(PreferGoals,1,2,2,2,0.5),10*Refinedweight(PreferNonGoals,2,1,2,2,2),3*OrientLMaxWeight(ConstPrio,2,1,2,1,1),2*ClauseWeightAge(ConstPrio,1,1,1,3))'"
tRp201
g3
(g9
S'\x14\xaeG\xe1z\xfcQ@'
tRp202
F66.540000000000006
tp203
a(g3
(g4
(S'S10'
I0
I1
tRp204
(I3
S'|'
NNNI10
I1
I0
tbS'SWC052+1.p'
tRp205
g3
(g4
(S'S434'
I0
I1
tRp206
(I3
S'|'
NNNI434
I1
I0
tbS"--definitional-cnf=24 -s --delete-bad-limit=1024000000 -F1 --simul-paramod -WSelectComplexAHP --split-clauses=4 --split-reuse-defs --forward-context-sr --destructive-er-aggressive --destructive-er -tKBO6 -winvfreqrank -c1 -Ginvfreq --prefer-initial-clauses --tstp-in -H'(10*Refinedweight(PreferGoals,1,2,2,2,0.5),10*Refinedweight(PreferNonGoals,2,1,2,2,2),3*OrientLMaxWeight(ConstPrio,2,1,2,1,1),2*ClauseWeightAge(ConstPrio,1,1,1,3))'"
tRp207
g3
(g9
S'w\xbe\x9f\x1a/Qc@'
tRp208
F146.25999999999999
tp209
a(g3
(g4
(S'S10'
I0
I1
tRp210
(I3
S'|'
NNNI10
I1
I0
tbS'RNG109+1.p'
tRp211
g3
(g4
(S'S434'
I0
I1
tRp212
(I3
S'|'
NNNI434
I1
I0
tbS"--definitional-cnf=24 -s --delete-bad-limit=1024000000 -F1 --simul-paramod -WSelectComplexAHP --split-clauses=4 --split-reuse-defs --forward-context-sr --destructive-er-aggressive --destructive-er -tKBO6 -winvfreqrank -c1 -Ginvfreq --prefer-initial-clauses --tstp-in -H'(10*Refinedweight(PreferGoals,1,2,2,2,0.5),10*Refinedweight(PreferNonGoals,2,1,2,2,2),3*OrientLMaxWeight(ConstPrio,2,1,2,1,1),2*ClauseWeightAge(ConstPrio,1,1,1,3))'"
tRp213
g3
(g9
S'y\xe9&1\x08\xb4c@'
tRp214
F188.37
tp215
a(g3
(g4
(S'S10'
I0
I1
tRp216
(I3
S'|'
NNNI10
I1
I0
tbS'NUM444+6.p'
tRp217
g3
(g4
(S'S434'
I0
I1
tRp218
(I3
S'|'
NNNI434
I1
I0
tbS"--definitional-cnf=24 -s --delete-bad-limit=1024000000 -F1 --simul-paramod -WSelectComplexAHP --split-clauses=4 --split-reuse-defs --forward-context-sr --destructive-er-aggressive --destructive-er -tKBO6 -winvfreqrank -c1 -Ginvfreq --prefer-initial-clauses --tstp-in -H'(10*Refinedweight(PreferGoals,1,2,2,2,0.5),10*Refinedweight(PreferNonGoals,2,1,2,2,2),3*OrientLMaxWeight(ConstPrio,2,1,2,1,1),2*ClauseWeightAge(ConstPrio,1,1,1,3))'"
tRp219
g3
(g9
S'j\xbct\x93\x18tc@'
tRp220
F138.18000000000001
tp221
a(g3
(g4
(S'S10'
I0
I1
tRp222
(I3
S'|'
NNNI10
I1
I0
tbS'SEU078+1.p'
tRp223
g3
(g4
(S'S434'
I0
I1
tRp224
(I3
S'|'
NNNI434
I1
I0
tbS"--definitional-cnf=24 -s --delete-bad-limit=1024000000 -F1 --simul-paramod -WSelectComplexAHP --split-clauses=4 --split-reuse-defs --forward-context-sr --destructive-er-aggressive --destructive-er -tKBO6 -winvfreqrank -c1 -Ginvfreq --prefer-initial-clauses --tstp-in -H'(10*Refinedweight(PreferGoals,1,2,2,2,0.5),10*Refinedweight(PreferNonGoals,2,1,2,2,2),3*OrientLMaxWeight(ConstPrio,2,1,2,1,1),2*ClauseWeightAge(ConstPrio,1,1,1,3))'"
tRp225
g3
(g9
S'm\xe7\xfb\xa9\xf1\xd2\x03@'
tRp226
F2.6200000000000001
tp227
a(g3
(g4
(S'S10'
I0
I1
tRp228
(I3
S'|'
NNNI10
I1
I0
tbS'SWC083+1.p'
tRp229
g3
(g4
(S'S434'
I0
I1
tRp230
(I3
S'|'
NNNI434
I1
I0
tbS"--definitional-cnf=24 -s --delete-bad-limit=1024000000 -F1 --simul-paramod -WSelectComplexAHP --split-clauses=4 --split-reuse-defs --forward-context-sr --destructive-er-aggressive --destructive-er -tKBO6 -winvfreqrank -c1 -Ginvfreq --prefer-initial-clauses --tstp-in -H'(10*Refinedweight(PreferGoals,1,2,2,2,0.5),10*Refinedweight(PreferNonGoals,2,1,2,2,2),3*OrientLMaxWeight(ConstPrio,2,1,2,1,1),2*ClauseWeightAge(ConstPrio,1,1,1,3))'"
tRp231
g3
(g9
S'\xa2E\xb6\xf3\xfd\xd4\xf2?'
tRp232
F1
tp233
a(g3
(g4
(S'S10'
I0
I1
tRp234
(I3
S'|'
NNNI10
I1
I0
tbS'SET108-7.p'
tRp235
g3
(g4
(S'S434'
I0
I1
tRp236
(I3
S'|'
NNNI434
I1
I0
tbS"--definitional-cnf=24 -s --delete-bad-limit=1024000000 -F1 --simul-paramod -WSelectComplexAHP --split-clauses=4 --split-reuse-defs --forward-context-sr --destructive-er-aggressive --destructive-er -tKBO6 -winvfreqrank -c1 -Ginvfreq --prefer-initial-clauses --tstp-in -H'(10*Refinedweight(PreferGoals,1,2,2,2,0.5),10*Refinedweight(PreferNonGoals,2,1,2,2,2),3*OrientLMaxWeight(ConstPrio,2,1,2,1,1),2*ClauseWeightAge(ConstPrio,1,1,1,3))'"
tRp237
g3
(g9
S'\xd5x\xe9&1\x88\x1c@'
tRp238
F8.0999999999999996
tp239
a(g3
(g4
(S'S10'
I0
I1
tRp240
(I3
S'|'
NNNI10
I1
I0
tbS'SET607+3.p'
tRp241
g3
(g4
(S'S434'
I0
I1
tRp242
(I3
S'|'
NNNI434
I1
I0
tbS"--definitional-cnf=24 -s --delete-bad-limit=1024000000 -F1 --simul-paramod -WSelectComplexAHP --split-clauses=4 --split-reuse-defs --forward-context-sr --destructive-er-aggressive --destructive-er -tKBO6 -winvfreqrank -c1 -Ginvfreq --prefer-initial-clauses --tstp-in -H'(10*Refinedweight(PreferGoals,1,2,2,2,0.5),10*Refinedweight(PreferNonGoals,2,1,2,2,2),3*OrientLMaxWeight(ConstPrio,2,1,2,1,1),2*ClauseWeightAge(ConstPrio,1,1,1,3))'"
tRp243
g3
(g9
S'`\xe5\xd0"\xdb\x11p@'
tRp244
F211.69
tp245
a(g3
(g4
(S'S10'
I0
I1
tRp246
(I3
S'|'
NNNI10
I1
I0
tbS'HAL001+2.p'
tRp247
g3
(g4
(S'S434'
I0
I1
tRp248
(I3
S'|'
NNNI434
I1
I0
tbS"--definitional-cnf=24 -s --delete-bad-limit=1024000000 -F1 --simul-paramod -WSelectComplexAHP --split-clauses=4 --split-reuse-defs --forward-context-sr --destructive-er-aggressive --destructive-er -tKBO6 -winvfreqrank -c1 -Ginvfreq --prefer-initial-clauses --tstp-in -H'(10*Refinedweight(PreferGoals,1,2,2,2,0.5),10*Refinedweight(PreferNonGoals,2,1,2,2,2),3*OrientLMaxWeight(ConstPrio,2,1,2,1,1),2*ClauseWeightAge(ConstPrio,1,1,1,3))'"
tRp249
g3
(g9
S'\x87\x16\xd9\xce\xf7\xd3q@'
tRp250
F264.32999999999998
tp251
a(g3
(g4
(S'S10'
I0
I1
tRp252
(I3
S'|'
NNNI10
I1
I0
tbS'FLD060-1.p'
tRp253
g3
(g4
(S'S434'
I0
I1
tRp254
(I3
S'|'
NNNI434
I1
I0
tbS"--definitional-cnf=24 -s --delete-bad-limit=1024000000 -F1 --simul-paramod -WSelectComplexAHP --split-clauses=4 --split-reuse-defs --forward-context-sr --destructive-er-aggressive --destructive-er -tKBO6 -winvfreqrank -c1 -Ginvfreq --prefer-initial-clauses --tstp-in -H'(10*Refinedweight(PreferGoals,1,2,2,2,0.5),10*Refinedweight(PreferNonGoals,2,1,2,2,2),3*OrientLMaxWeight(ConstPrio,2,1,2,1,1),2*ClauseWeightAge(ConstPrio,1,1,1,3))'"
tRp255
g3
(g9
S'\x12\x83\xc0\xca\xa1\x15p@'
tRp256
F196.5
tp257
a(g3
(g4
(S'S10'
I0
I1
tRp258
(I3
S'|'
NNNI10
I1
I0
tbS'SWC400+1.p'
tRp259
g3
(g4
(S'S434'
I0
I1
tRp260
(I3
S'|'
NNNI434
I1
I0
tbS"--definitional-cnf=24 -s --delete-bad-limit=1024000000 -F1 --simul-paramod -WSelectComplexAHP --split-clauses=4 --split-reuse-defs --forward-context-sr --destructive-er-aggressive --destructive-er -tKBO6 -winvfreqrank -c1 -Ginvfreq --prefer-initial-clauses --tstp-in -H'(10*Refinedweight(PreferGoals,1,2,2,2,0.5),10*Refinedweight(PreferNonGoals,2,1,2,2,2),3*OrientLMaxWeight(ConstPrio,2,1,2,1,1),2*ClauseWeightAge(ConstPrio,1,1,1,3))'"
tRp261
g3
(g9
S'\xbe\x9f\x1a/\xdd b@'
tRp262
F121.5
tp263
a(g3
(g4
(S'S10'
I0
I1
tRp264
(I3
S'|'
NNNI10
I1
I0
tbS'SYN474-1.p'
tRp265
g3
(g4
(S'S434'
I0
I1
tRp266
(I3
S'|'
NNNI434
I1
I0
tbS"--definitional-cnf=24 -s --delete-bad-limit=1024000000 -F1 --simul-paramod -WSelectComplexAHP --split-clauses=4 --split-reuse-defs --forward-context-sr --destructive-er-aggressive --destructive-er -tKBO6 -winvfreqrank -c1 -Ginvfreq --prefer-initial-clauses --tstp-in -H'(10*Refinedweight(PreferGoals,1,2,2,2,0.5),10*Refinedweight(PreferNonGoals,2,1,2,2,2),3*OrientLMaxWeight(ConstPrio,2,1,2,1,1),2*ClauseWeightAge(ConstPrio,1,1,1,3))'"
tRp267
g3
(g9
S'\x14\xaeG\xe1z,]@'
tRp268
F137.03999999999999
tp269
a(g3
(g4
(S'S10'
I0
I1
tRp270
(I3
S'|'
NNNI10
I1
I0
tbS'SYN468-1.p'
tRp271
g3
(g4
(S'S434'
I0
I1
tRp272
(I3
S'|'
NNNI434
I1
I0
tbS"--definitional-cnf=24 -s --delete-bad-limit=1024000000 -F1 --simul-paramod -WSelectComplexAHP --split-clauses=4 --split-reuse-defs --forward-context-sr --destructive-er-aggressive --destructive-er -tKBO6 -winvfreqrank -c1 -Ginvfreq --prefer-initial-clauses --tstp-in -H'(10*Refinedweight(PreferGoals,1,2,2,2,0.5),10*Refinedweight(PreferNonGoals,2,1,2,2,2),3*OrientLMaxWeight(ConstPrio,2,1,2,1,1),2*ClauseWeightAge(ConstPrio,1,1,1,3))'"
tRp273
g3
(g9
S'\x00\x00\x00\x00\x00\xf0^@'
tRp274
F156.99000000000001
tp275
a(g3
(g4
(S'S10'
I0
I1
tRp276
(I3
S'|'
NNNI10
I1
I0
tbS'LCL224-1.p'
tRp277
g3
(g4
(S'S434'
I0
I1
tRp278
(I3
S'|'
NNNI434
I1
I0
tbS"--definitional-cnf=24 -s --delete-bad-limit=1024000000 -F1 --simul-paramod -WSelectComplexAHP --split-clauses=4 --split-reuse-defs --forward-context-sr --destructive-er-aggressive --destructive-er -tKBO6 -winvfreqrank -c1 -Ginvfreq --prefer-initial-clauses --tstp-in -H'(10*Refinedweight(PreferGoals,1,2,2,2,0.5),10*Refinedweight(PreferNonGoals,2,1,2,2,2),3*OrientLMaxWeight(ConstPrio,2,1,2,1,1),2*ClauseWeightAge(ConstPrio,1,1,1,3))'"
tRp279
g3
(g9
S'o\x12\x83\xc0\xca\xb9m@'
tRp280
F194.38
tp281
a(g3
(g4
(S'S10'
I0
I1
tRp282
(I3
S'|'
NNNI10
I1
I0
tbS'CSR038+3.p'
tRp283
g3
(g4
(S'S434'
I0
I1
tRp284
(I3
S'|'
NNNI434
I1
I0
tbS"--definitional-cnf=24 -s --delete-bad-limit=1024000000 -F1 --simul-paramod -WSelectComplexAHP --split-clauses=4 --split-reuse-defs --forward-context-sr --destructive-er-aggressive --destructive-er -tKBO6 -winvfreqrank -c1 -Ginvfreq --prefer-initial-clauses --tstp-in -H'(10*Refinedweight(PreferGoals,1,2,2,2,0.5),10*Refinedweight(PreferNonGoals,2,1,2,2,2),3*OrientLMaxWeight(ConstPrio,2,1,2,1,1),2*ClauseWeightAge(ConstPrio,1,1,1,3))'"
tRp285
g3
(g9
S'\xe1z\x14\xaeGUl@'
tRp286
F261.81999999999999
tp287
a(g3
(g4
(S'S10'
I0
I1
tRp288
(I3
S'|'
NNNI10
I1
I0
tbS'GRA002+2.p'
tRp289
g3
(g4
(S'S434'
I0
I1
tRp290
(I3
S'|'
NNNI434
I1
I0
tbS"--definitional-cnf=24 -s --delete-bad-limit=1024000000 -F1 --simul-paramod -WSelectComplexAHP --split-clauses=4 --split-reuse-defs --forward-context-sr --destructive-er-aggressive --destructive-er -tKBO6 -winvfreqrank -c1 -Ginvfreq --prefer-initial-clauses --tstp-in -H'(10*Refinedweight(PreferGoals,1,2,2,2,0.5),10*Refinedweight(PreferNonGoals,2,1,2,2,2),3*OrientLMaxWeight(ConstPrio,2,1,2,1,1),2*ClauseWeightAge(ConstPrio,1,1,1,3))'"
tRp291
g3
(g9
S'\x17\xd9\xce\xf7SKm@'
tRp292
F187.71000000000001
tp293
a(g3
(g4
(S'S10'
I0
I1
tRp294
(I3
S'|'
NNNI10
I1
I0
tbS'SYN484-1.p'
tRp295
g3
(g4
(S'S434'
I0
I1
tRp296
(I3
S'|'
NNNI434
I1
I0
tbS"--definitional-cnf=24 -s --delete-bad-limit=1024000000 -F1 --simul-paramod -WSelectComplexAHP --split-clauses=4 --split-reuse-defs --forward-context-sr --destructive-er-aggressive --destructive-er -tKBO6 -winvfreqrank -c1 -Ginvfreq --prefer-initial-clauses --tstp-in -H'(10*Refinedweight(PreferGoals,1,2,2,2,0.5),10*Refinedweight(PreferNonGoals,2,1,2,2,2),3*OrientLMaxWeight(ConstPrio,2,1,2,1,1),2*ClauseWeightAge(ConstPrio,1,1,1,3))'"
tRp297
g3
(g9
S'\xcd\xcc\xcc\xcc\xcc<@@'
tRp298
F29.850000000000001
tp299
a(g3
(g4
(S'S10'
I0
I1
tRp300
(I3
S'|'
NNNI10
I1
I0
tbS'SWV757-1.p'
tRp301
g3
(g4
(S'S434'
I0
I1
tRp302
(I3
S'|'
NNNI434
I1
I0
tbS"--definitional-cnf=24 -s --delete-bad-limit=1024000000 -F1 --simul-paramod -WSelectComplexAHP --split-clauses=4 --split-reuse-defs --forward-context-sr --destructive-er-aggressive --destructive-er -tKBO6 -winvfreqrank -c1 -Ginvfreq --prefer-initial-clauses --tstp-in -H'(10*Refinedweight(PreferGoals,1,2,2,2,0.5),10*Refinedweight(PreferNonGoals,2,1,2,2,2),3*OrientLMaxWeight(ConstPrio,2,1,2,1,1),2*ClauseWeightAge(ConstPrio,1,1,1,3))'"
tRp303
g3
(g9
S'b\x10X9\xb4\x88F@'
tRp304
F59.799999999999997
tp305
a(g3
(g4
(S'S10'
I0
I1
tRp306
(I3
S'|'
NNNI10
I1
I0
tbS'NUM622+1.p'
tRp307
g3
(g4
(S'S434'
I0
I1
tRp308
(I3
S'|'
NNNI434
I1
I0
tbS"--definitional-cnf=24 -s --delete-bad-limit=1024000000 -F1 --simul-paramod -WSelectComplexAHP --split-clauses=4 --split-reuse-defs --forward-context-sr --destructive-er-aggressive --destructive-er -tKBO6 -winvfreqrank -c1 -Ginvfreq --prefer-initial-clauses --tstp-in -H'(10*Refinedweight(PreferGoals,1,2,2,2,0.5),10*Refinedweight(PreferNonGoals,2,1,2,2,2),3*OrientLMaxWeight(ConstPrio,2,1,2,1,1),2*ClauseWeightAge(ConstPrio,1,1,1,3))'"
tRp309
g3
(g9
S'\xbe\x9f\x1a/\xdd\xd4C@'
tRp310
F46.359999999999999
tp311
a(g3
(g4
(S'S10'
I0
I1
tRp312
(I3
S'|'
NNNI10
I1
I0
tbS'CSR085+3.p'
tRp313
g3
(g4
(S'S434'
I0
I1
tRp314
(I3
S'|'
NNNI434
I1
I0
tbS"--definitional-cnf=24 -s --delete-bad-limit=1024000000 -F1 --simul-paramod -WSelectComplexAHP --split-clauses=4 --split-reuse-defs --forward-context-sr --destructive-er-aggressive --destructive-er -tKBO6 -winvfreqrank -c1 -Ginvfreq --prefer-initial-clauses --tstp-in -H'(10*Refinedweight(PreferGoals,1,2,2,2,0.5),10*Refinedweight(PreferNonGoals,2,1,2,2,2),3*OrientLMaxWeight(ConstPrio,2,1,2,1,1),2*ClauseWeightAge(ConstPrio,1,1,1,3))'"
tRp315
g3
(g9
S'\xf0\xa7\xc6K7\xc94@'
tRp316
F22.609999999999999
tp317
a(g3
(g4
(S'S10'
I0
I1
tRp318
(I3
S'|'
NNNI10
I1
I0
tbS'LCL524+1.p'
tRp319
g3
(g4
(S'S434'
I0
I1
tRp320
(I3
S'|'
NNNI434
I1
I0
tbS"--definitional-cnf=24 -s --delete-bad-limit=1024000000 -F1 --simul-paramod -WSelectComplexAHP --split-clauses=4 --split-reuse-defs --forward-context-sr --destructive-er-aggressive --destructive-er -tKBO6 -winvfreqrank -c1 -Ginvfreq --prefer-initial-clauses --tstp-in -H'(10*Refinedweight(PreferGoals,1,2,2,2,0.5),10*Refinedweight(PreferNonGoals,2,1,2,2,2),3*OrientLMaxWeight(ConstPrio,2,1,2,1,1),2*ClauseWeightAge(ConstPrio,1,1,1,3))'"
tRp321
g3
(g9
S'\x85\xebQ\xb8\x1e\x05.@'
tRp322
F15.58
tp323
a(g3
(g4
(S'S10'
I0
I1
tRp324
(I3
S'|'
NNNI10
I1
I0
tbS'SEU383+1.p'
tRp325
g3
(g4
(S'S434'
I0
I1
tRp326
(I3
S'|'
NNNI434
I1
I0
tbS"--definitional-cnf=24 -s --delete-bad-limit=1024000000 -F1 --simul-paramod -WSelectComplexAHP --split-clauses=4 --split-reuse-defs --forward-context-sr --destructive-er-aggressive --destructive-er -tKBO6 -winvfreqrank -c1 -Ginvfreq --prefer-initial-clauses --tstp-in -H'(10*Refinedweight(PreferGoals,1,2,2,2,0.5),10*Refinedweight(PreferNonGoals,2,1,2,2,2),3*OrientLMaxWeight(ConstPrio,2,1,2,1,1),2*ClauseWeightAge(ConstPrio,1,1,1,3))'"
tRp327
g3
(g9
S'\x7fj\xbct\x93X1@'
tRp328
F16.100000000000001
tp329
a(g3
(g4
(S'S10'
I0
I1
tRp330
(I3
S'|'
NNNI10
I1
I0
tbS'RNG062+2.p'
tRp331
g3
(g4
(S'S430'
I0
I1
tRp332
(I3
S'|'
NNNI430
I1
I0
tbS"--definitional-cnf=24 -s --delete-bad-limit=1024000000 --simul-paramod -F1 -WSelectNewComplexAHP --forward-context-sr --split-aggressive --split-clauses=8 --split-reuse-defs --destructive-er-aggressive --destructive-er -tKBO6 -winvfreqrank -c1 -Ginvfreq --tstp-in -H'(10*PNRefinedweight(PreferGoals,1,1,1,2,2,2,0.5),10*PNRefinedweight(PreferNonGoals,2,1,1,1,2,2,2),5*OrientLMaxWeight(ConstPrio,2,1,2,1,1),1*FIFOWeight(ConstPrio))'"
tRp333
g3
(g9
S'\xd9\xce\xf7S\xe3\xa5\xef?'
tRp334
F1.29
tp335
a(g3
(g4
(S'S10'
I0
I1
tRp336
(I3
S'|'
NNNI10
I1
I0
tbS'NUM612+3.p'
tRp337
g3
(g4
(S'S430'
I0
I1
tRp338
(I3
S'|'
NNNI430
I1
I0
tbS"--definitional-cnf=24 -s --delete-bad-limit=1024000000 --simul-paramod -F1 -WSelectNewComplexAHP --forward-context-sr --split-aggressive --split-clauses=8 --split-reuse-defs --destructive-er-aggressive --destructive-er -tKBO6 -winvfreqrank -c1 -Ginvfreq --tstp-in -H'(10*PNRefinedweight(PreferGoals,1,1,1,2,2,2,0.5),10*PNRefinedweight(PreferNonGoals,2,1,1,1,2,2,2),5*OrientLMaxWeight(ConstPrio,2,1,2,1,1),1*FIFOWeight(ConstPrio))'"
tRp339
g3
(g9
S"'1\x08\xac\x1cZ\xe0?"
tRp340
F0.62
tp341
a(g3
(g4
(S'S10'
I0
I1
tRp342
(I3
S'|'
NNNI10
I1
I0
tbS'NUM451+6.p'
tRp343
g3
(g4
(S'S430'
I0
I1
tRp344
(I3
S'|'
NNNI430
I1
I0
tbS"--definitional-cnf=24 -s --delete-bad-limit=1024000000 --simul-paramod -F1 -WSelectNewComplexAHP --forward-context-sr --split-aggressive --split-clauses=8 --split-reuse-defs --destructive-er-aggressive --destructive-er -tKBO6 -winvfreqrank -c1 -Ginvfreq --tstp-in -H'(10*PNRefinedweight(PreferGoals,1,1,1,2,2,2,0.5),10*PNRefinedweight(PreferNonGoals,2,1,1,1,2,2,2),5*OrientLMaxWeight(ConstPrio,2,1,2,1,1),1*FIFOWeight(ConstPrio))'"
tRp345
g3
(g9
S'b\x10X9\xb4\xc8\xe2?'
tRp346
F1.0800000000000001
tp347
a(g3
(g4
(S'S10'
I0
I1
tRp348
(I3
S'|'
NNNI10
I1
I0
tbS'SWV814-1.p'
tRp349
g3
(g4
(S'S430'
I0
I1
tRp350
(I3
S'|'
NNNI430
I1
I0
tbS"--definitional-cnf=24 -s --delete-bad-limit=1024000000 --simul-paramod -F1 -WSelectNewComplexAHP --forward-context-sr --split-aggressive --split-clauses=8 --split-reuse-defs --destructive-er-aggressive --destructive-er -tKBO6 -winvfreqrank -c1 -Ginvfreq --tstp-in -H'(10*PNRefinedweight(PreferGoals,1,1,1,2,2,2,0.5),10*PNRefinedweight(PreferNonGoals,2,1,1,1,2,2,2),5*OrientLMaxWeight(ConstPrio,2,1,2,1,1),1*FIFOWeight(ConstPrio))'"
tRp351
g3
(g9
S'}?5^\xbaYV@'
tRp352
F98.5
tp353
a(g3
(g4
(S'S10'
I0
I1
tRp354
(I3
S'|'
NNNI10
I1
I0
tbS'HWV003-1.p'
tRp355
g3
(g4
(S'S430'
I0
I1
tRp356
(I3
S'|'
NNNI430
I1
I0
tbS"--definitional-cnf=24 -s --delete-bad-limit=1024000000 --simul-paramod -F1 -WSelectNewComplexAHP --forward-context-sr --split-aggressive --split-clauses=8 --split-reuse-defs --destructive-er-aggressive --destructive-er -tKBO6 -winvfreqrank -c1 -Ginvfreq --tstp-in -H'(10*PNRefinedweight(PreferGoals,1,1,1,2,2,2,0.5),10*PNRefinedweight(PreferNonGoals,2,1,1,1,2,2,2),5*OrientLMaxWeight(ConstPrio,2,1,2,1,1),1*FIFOWeight(ConstPrio))'"
tRp357
g3
(g9
S'\x89A`\xe5\xd0\xd2R@'
tRp358
F72.459999999999994
tp359
a(g3
(g4
(S'S10'
I0
I1
tRp360
(I3
S'|'
NNNI10
I1
I0
tbS'SWV792-1.p'
tRp361
g3
(g4
(S'S430'
I0
I1
tRp362
(I3
S'|'
NNNI430
I1
I0
tbS"--definitional-cnf=24 -s --delete-bad-limit=1024000000 --simul-paramod -F1 -WSelectNewComplexAHP --forward-context-sr --split-aggressive --split-clauses=8 --split-reuse-defs --destructive-er-aggressive --destructive-er -tKBO6 -winvfreqrank -c1 -Ginvfreq --tstp-in -H'(10*PNRefinedweight(PreferGoals,1,1,1,2,2,2,0.5),10*PNRefinedweight(PreferNonGoals,2,1,1,1,2,2,2),5*OrientLMaxWeight(ConstPrio,2,1,2,1,1),1*FIFOWeight(ConstPrio))'"
tRp363
g3
(g9
S'm\xe7\xfb\xa9\xf1\xcaV@'
tRp364
F97.640000000000001
tp365
a(g3
(g4
(S'S10'
I0
I1
tRp366
(I3
S'|'
NNNI10
I1
I0
tbS'PRO003+2.p'
tRp367
g3
(g4
(S'S430'
I0
I1
tRp368
(I3
S'|'
NNNI430
I1
I0
tbS"--definitional-cnf=24 -s --delete-bad-limit=1024000000 --simul-paramod -F1 -WSelectNewComplexAHP --forward-context-sr --split-aggressive --split-clauses=8 --split-reuse-defs --destructive-er-aggressive --destructive-er -tKBO6 -winvfreqrank -c1 -Ginvfreq --tstp-in -H'(10*PNRefinedweight(PreferGoals,1,1,1,2,2,2,0.5),10*PNRefinedweight(PreferNonGoals,2,1,1,1,2,2,2),5*OrientLMaxWeight(ConstPrio,2,1,2,1,1),1*FIFOWeight(ConstPrio))'"
tRp369
g3
(g9
S'\xf8S\xe3\xa5\x9b\x04c@'
tRp370
F215.61000000000001
tp371
a(g3
(g4
(S'S10'
I0
I1
tRp372
(I3
S'|'
NNNI10
I1
I0
tbS'CSR098+6.p'
tRp373
g3
(g4
(S'S430'
I0
I1
tRp374
(I3
S'|'
NNNI430
I1
I0
tbS"--definitional-cnf=24 -s --delete-bad-limit=1024000000 --simul-paramod -F1 -WSelectNewComplexAHP --forward-context-sr --split-aggressive --split-clauses=8 --split-reuse-defs --destructive-er-aggressive --destructive-er -tKBO6 -winvfreqrank -c1 -Ginvfreq --tstp-in -H'(10*PNRefinedweight(PreferGoals,1,1,1,2,2,2,0.5),10*PNRefinedweight(PreferNonGoals,2,1,1,1,2,2,2),5*OrientLMaxWeight(ConstPrio,2,1,2,1,1),1*FIFOWeight(ConstPrio))'"
tRp375
g3
(g9
S'\xaa\xf1\xd2Mb\xdcd@'
tRp376
F128.71000000000001
tp377
a(g3
(g4
(S'S10'
I0
I1
tRp378
(I3
S'|'
NNNI10
I1
I0
tbS'CSR098+7.p'
tRp379
g3
(g4
(S'S430'
I0
I1
tRp380
(I3
S'|'
NNNI430
I1
I0
tbS"--definitional-cnf=24 -s --delete-bad-limit=1024000000 --simul-paramod -F1 -WSelectNewComplexAHP --forward-context-sr --split-aggressive --split-clauses=8 --split-reuse-defs --destructive-er-aggressive --destructive-er -tKBO6 -winvfreqrank -c1 -Ginvfreq --tstp-in -H'(10*PNRefinedweight(PreferGoals,1,1,1,2,2,2,0.5),10*PNRefinedweight(PreferNonGoals,2,1,1,1,2,2,2),5*OrientLMaxWeight(ConstPrio,2,1,2,1,1),1*FIFOWeight(ConstPrio))'"
tRp381
g3
(g9
S'w\xbe\x9f\x1a/md@'
tRp382
F150.13999999999999
tp383
a(g3
(g4
(S'S10'
I0
I1
tRp384
(I3
S'|'
NNNI10
I1
I0
tbS'GRP102-1.p'
tRp385
g3
(g4
(S'S430'
I0
I1
tRp386
(I3
S'|'
NNNI430
I1
I0
tbS"--definitional-cnf=24 -s --delete-bad-limit=1024000000 --simul-paramod -F1 -WSelectNewComplexAHP --forward-context-sr --split-aggressive --split-clauses=8 --split-reuse-defs --destructive-er-aggressive --destructive-er -tKBO6 -winvfreqrank -c1 -Ginvfreq --tstp-in -H'(10*PNRefinedweight(PreferGoals,1,1,1,2,2,2,0.5),10*PNRefinedweight(PreferNonGoals,2,1,1,1,2,2,2),5*OrientLMaxWeight(ConstPrio,2,1,2,1,1),1*FIFOWeight(ConstPrio))'"
tRp387
g3
(g9
S'Zd;\xdfO\x8d\xf1?'
tRp388
F2.2400000000000002
tp389
a(g3
(g4
(S'S10'
I0
I1
tRp390
(I3
S'|'
NNNI10
I1
I0
tbS'GRP655+3.p'
tRp391
g3
(g4
(S'S430'
I0
I1
tRp392
(I3
S'|'
NNNI430
I1
I0
tbS"--definitional-cnf=24 -s --delete-bad-limit=1024000000 --simul-paramod -F1 -WSelectNewComplexAHP --forward-context-sr --split-aggressive --split-clauses=8 --split-reuse-defs --destructive-er-aggressive --destructive-er -tKBO6 -winvfreqrank -c1 -Ginvfreq --tstp-in -H'(10*PNRefinedweight(PreferGoals,1,1,1,2,2,2,0.5),10*PNRefinedweight(PreferNonGoals,2,1,1,1,2,2,2),5*OrientLMaxWeight(ConstPrio,2,1,2,1,1),1*FIFOWeight(ConstPrio))'"
tRp393
g3
(g9
S'\x17\xd9\xce\xf7S\xe3!@'
tRp394
F9.9900000000000002
tp395
a(g3
(g4
(S'S10'
I0
I1
tRp396
(I3
S'|'
NNNI10
I1
I0
tbS'COL057-1.p'
tRp397
g3
(g4
(S'S430'
I0
I1
tRp398
(I3
S'|'
NNNI430
I1
I0
tbS"--definitional-cnf=24 -s --delete-bad-limit=1024000000 --simul-paramod -F1 -WSelectNewComplexAHP --forward-context-sr --split-aggressive --split-clauses=8 --split-reuse-defs --destructive-er-aggressive --destructive-er -tKBO6 -winvfreqrank -c1 -Ginvfreq --tstp-in -H'(10*PNRefinedweight(PreferGoals,1,1,1,2,2,2,0.5),10*PNRefinedweight(PreferNonGoals,2,1,1,1,2,2,2),5*OrientLMaxWeight(ConstPrio,2,1,2,1,1),1*FIFOWeight(ConstPrio))'"
tRp399
g3
(g9
S'\x98n\x12\x83\xc0\xca\xfb?'
tRp400
F1.6799999999999999
tp401
a(g3
(g4
(S'S10'
I0
I1
tRp402
(I3
S'|'
NNNI10
I1
I0
tbS'AGT005+1.p'
tRp403
g3
(g4
(S'S430'
I0
I1
tRp404
(I3
S'|'
NNNI430
I1
I0
tbS"--definitional-cnf=24 -s --delete-bad-limit=1024000000 --simul-paramod -F1 -WSelectNewComplexAHP --forward-context-sr --split-aggressive --split-clauses=8 --split-reuse-defs --destructive-er-aggressive --destructive-er -tKBO6 -winvfreqrank -c1 -Ginvfreq --tstp-in -H'(10*PNRefinedweight(PreferGoals,1,1,1,2,2,2,0.5),10*PNRefinedweight(PreferNonGoals,2,1,1,1,2,2,2),5*OrientLMaxWeight(ConstPrio,2,1,2,1,1),1*FIFOWeight(ConstPrio))'"
tRp405
g3
(g9
S'q=\n\xd7\xa3`r@'
tRp406
F283.06
tp407
a(g3
(g4
(S'S10'
I0
I1
tRp408
(I3
S'|'
NNNI10
I1
I0
tbS'KLE046+1.p'
tRp409
g3
(g4
(S'S430'
I0
I1
tRp410
(I3
S'|'
NNNI430
I1
I0
tbS"--definitional-cnf=24 -s --delete-bad-limit=1024000000 --simul-paramod -F1 -WSelectNewComplexAHP --forward-context-sr --split-aggressive --split-clauses=8 --split-reuse-defs --destructive-er-aggressive --destructive-er -tKBO6 -winvfreqrank -c1 -Ginvfreq --tstp-in -H'(10*PNRefinedweight(PreferGoals,1,1,1,2,2,2,0.5),10*PNRefinedweight(PreferNonGoals,2,1,1,1,2,2,2),5*OrientLMaxWeight(ConstPrio,2,1,2,1,1),1*FIFOWeight(ConstPrio))'"
tRp411
g3
(g9
S'\xdfO\x8d\x97n\x88q@'
tRp412
F101.89
tp413
a(g3
(g4
(S'S10'
I0
I1
tRp414
(I3
S'|'
NNNI10
I1
I0
tbS'NUM329+1.p'
tRp415
g3
(g4
(S'S430'
I0
I1
tRp416
(I3
S'|'
NNNI430
I1
I0
tbS"--definitional-cnf=24 -s --delete-bad-limit=1024000000 --simul-paramod -F1 -WSelectNewComplexAHP --forward-context-sr --split-aggressive --split-clauses=8 --split-reuse-defs --destructive-er-aggressive --destructive-er -tKBO6 -winvfreqrank -c1 -Ginvfreq --tstp-in -H'(10*PNRefinedweight(PreferGoals,1,1,1,2,2,2,0.5),10*PNRefinedweight(PreferNonGoals,2,1,1,1,2,2,2),5*OrientLMaxWeight(ConstPrio,2,1,2,1,1),1*FIFOWeight(ConstPrio))'"
tRp417
g3
(g9
S'X9\xb4\xc8v\x02p@'
tRp418
F229.36000000000001
tp419
a(g3
(g4
(S'S10'
I0
I1
tRp420
(I3
S'|'
NNNI10
I1
I0
tbS'CSR118+4.p'
tRp421
g3
(g4
(S'S430'
I0
I1
tRp422
(I3
S'|'
NNNI430
I1
I0
tbS"--definitional-cnf=24 -s --delete-bad-limit=1024000000 --simul-paramod -F1 -WSelectNewComplexAHP --forward-context-sr --split-aggressive --split-clauses=8 --split-reuse-defs --destructive-er-aggressive --destructive-er -tKBO6 -winvfreqrank -c1 -Ginvfreq --tstp-in -H'(10*PNRefinedweight(PreferGoals,1,1,1,2,2,2,0.5),10*PNRefinedweight(PreferNonGoals,2,1,1,1,2,2,2),5*OrientLMaxWeight(ConstPrio,2,1,2,1,1),1*FIFOWeight(ConstPrio))'"
tRp423
g3
(g9
S'\x0c\x02+\x87\x16\x89]@'
tRp424
F128.5
tp425
a(g3
(g4
(S'S18'
I0
I1
tRp426
(I3
S'|'
NNNI18
I1
I0
tbS'NUM378+1.015.020.p'
tRp427
g3
(g4
(S'S430'
I0
I1
tRp428
(I3
S'|'
NNNI430
I1
I0
tbS"--definitional-cnf=24 -s --delete-bad-limit=1024000000 --simul-paramod -F1 -WSelectNewComplexAHP --forward-context-sr --split-aggressive --split-clauses=8 --split-reuse-defs --destructive-er-aggressive --destructive-er -tKBO6 -winvfreqrank -c1 -Ginvfreq --tstp-in -H'(10*PNRefinedweight(PreferGoals,1,1,1,2,2,2,0.5),10*PNRefinedweight(PreferNonGoals,2,1,1,1,2,2,2),5*OrientLMaxWeight(ConstPrio,2,1,2,1,1),1*FIFOWeight(ConstPrio))'"
tRp429
g3
(g9
S'\x85\xebQ\xb8\x1e\xcdZ@'
tRp430
F96.530000000000001
tp431
a(g3
(g4
(S'S10'
I0
I1
tRp432
(I3
S'|'
NNNI10
I1
I0
tbS'CSR085+6.p'
tRp433
g3
(g4
(S'S430'
I0
I1
tRp434
(I3
S'|'
NNNI430
I1
I0
tbS"--definitional-cnf=24 -s --delete-bad-limit=1024000000 --simul-paramod -F1 -WSelectNewComplexAHP --forward-context-sr --split-aggressive --split-clauses=8 --split-reuse-defs --destructive-er-aggressive --destructive-er -tKBO6 -winvfreqrank -c1 -Ginvfreq --tstp-in -H'(10*PNRefinedweight(PreferGoals,1,1,1,2,2,2,0.5),10*PNRefinedweight(PreferNonGoals,2,1,1,1,2,2,2),5*OrientLMaxWeight(ConstPrio,2,1,2,1,1),1*FIFOWeight(ConstPrio))'"
tRp435
g3
(g9
S'B`\xe5\xd0"\xffa@'
tRp436
F199.06999999999999
tp437
a(g3
(g4
(S'S10'
I0
I1
tRp438
(I3
S'|'
NNNI10
I1
I0
tbS'SEU162+2.p'
tRp439
g3
(g4
(S'S430'
I0
I1
tRp440
(I3
S'|'
NNNI430
I1
I0
tbS"--definitional-cnf=24 -s --delete-bad-limit=1024000000 --simul-paramod -F1 -WSelectNewComplexAHP --forward-context-sr --split-aggressive --split-clauses=8 --split-reuse-defs --destructive-er-aggressive --destructive-er -tKBO6 -winvfreqrank -c1 -Ginvfreq --tstp-in -H'(10*PNRefinedweight(PreferGoals,1,1,1,2,2,2,0.5),10*PNRefinedweight(PreferNonGoals,2,1,1,1,2,2,2),5*OrientLMaxWeight(ConstPrio,2,1,2,1,1),1*FIFOWeight(ConstPrio))'"
tRp441
g3
(g9
S'\xf4\xfd\xd4x\xe9Ri@'
tRp442
F245.47
tp443
a(g3
(g4
(S'S10'
I0
I1
tRp444
(I3
S'|'
NNNI10
I1
I0
tbS'GEO270+1.p'
tRp445
g3
(g4
(S'S430'
I0
I1
tRp446
(I3
S'|'
NNNI430
I1
I0
tbS"--definitional-cnf=24 -s --delete-bad-limit=1024000000 --simul-paramod -F1 -WSelectNewComplexAHP --forward-context-sr --split-aggressive --split-clauses=8 --split-reuse-defs --destructive-er-aggressive --destructive-er -tKBO6 -winvfreqrank -c1 -Ginvfreq --tstp-in -H'(10*PNRefinedweight(PreferGoals,1,1,1,2,2,2,0.5),10*PNRefinedweight(PreferNonGoals,2,1,1,1,2,2,2),5*OrientLMaxWeight(ConstPrio,2,1,2,1,1),1*FIFOWeight(ConstPrio))'"
tRp447
g3
(g9
S'\x06\x81\x95C\x8b\xb0m@'
tRp448
F175.66
tp449
a(g3
(g4
(S'S10'
I0
I1
tRp450
(I3
S'|'
NNNI10
I1
I0
tbS'GRP663-1.p'
tRp451
g3
(g4
(S'S430'
I0
I1
tRp452
(I3
S'|'
NNNI430
I1
I0
tbS"--definitional-cnf=24 -s --delete-bad-limit=1024000000 --simul-paramod -F1 -WSelectNewComplexAHP --forward-context-sr --split-aggressive --split-clauses=8 --split-reuse-defs --destructive-er-aggressive --destructive-er -tKBO6 -winvfreqrank -c1 -Ginvfreq --tstp-in -H'(10*PNRefinedweight(PreferGoals,1,1,1,2,2,2,0.5),10*PNRefinedweight(PreferNonGoals,2,1,1,1,2,2,2),5*OrientLMaxWeight(ConstPrio,2,1,2,1,1),1*FIFOWeight(ConstPrio))'"
tRp453
g3
(g9
S'\x83\xc0\xca\xa1E\x9an@'
tRp454
F282.26999999999998
tp455
a(g3
(g4
(S'S10'
I0
I1
tRp456
(I3
S'|'
NNNI10
I1
I0
tbS'CSR099+4.p'
tRp457
g3
(g4
(S'S430'
I0
I1
tRp458
(I3
S'|'
NNNI430
I1
I0
tbS"--definitional-cnf=24 -s --delete-bad-limit=1024000000 --simul-paramod -F1 -WSelectNewComplexAHP --forward-context-sr --split-aggressive --split-clauses=8 --split-reuse-defs --destructive-er-aggressive --destructive-er -tKBO6 -winvfreqrank -c1 -Ginvfreq --tstp-in -H'(10*PNRefinedweight(PreferGoals,1,1,1,2,2,2,0.5),10*PNRefinedweight(PreferNonGoals,2,1,1,1,2,2,2),5*OrientLMaxWeight(ConstPrio,2,1,2,1,1),1*FIFOWeight(ConstPrio))'"
tRp459
g3
(g9
S'\x89A`\xe5\xd0\xf2A@'
tRp460
F49.350000000000001
tp461
a(g3
(g4
(S'S10'
I0
I1
tRp462
(I3
S'|'
NNNI10
I1
I0
tbS'SET584+3.p'
tRp463
g3
(g4
(S'S430'
I0
I1
tRp464
(I3
S'|'
NNNI430
I1
I0
tbS"--definitional-cnf=24 -s --delete-bad-limit=1024000000 --simul-paramod -F1 -WSelectNewComplexAHP --forward-context-sr --split-aggressive --split-clauses=8 --split-reuse-defs --destructive-er-aggressive --destructive-er -tKBO6 -winvfreqrank -c1 -Ginvfreq --tstp-in -H'(10*PNRefinedweight(PreferGoals,1,1,1,2,2,2,0.5),10*PNRefinedweight(PreferNonGoals,2,1,1,1,2,2,2),5*OrientLMaxWeight(ConstPrio,2,1,2,1,1),1*FIFOWeight(ConstPrio))'"
tRp465
g3
(g9
S'%\x06\x81\x95C\xebA@'
tRp466
F45.5
tp467
a(g3
(g4
(S'S10'
I0
I1
tRp468
(I3
S'|'
NNNI10
I1
I0
tbS'ALG145+1.p'
tRp469
g3
(g4
(S'S430'
I0
I1
tRp470
(I3
S'|'
NNNI430
I1
I0
tbS"--definitional-cnf=24 -s --delete-bad-limit=1024000000 --simul-paramod -F1 -WSelectNewComplexAHP --forward-context-sr --split-aggressive --split-clauses=8 --split-reuse-defs --destructive-er-aggressive --destructive-er -tKBO6 -winvfreqrank -c1 -Ginvfreq --tstp-in -H'(10*PNRefinedweight(PreferGoals,1,1,1,2,2,2,0.5),10*PNRefinedweight(PreferNonGoals,2,1,1,1,2,2,2),5*OrientLMaxWeight(ConstPrio,2,1,2,1,1),1*FIFOWeight(ConstPrio))'"
tRp471
g3
(g9
S'\xb0rh\x91\xed\x9cE@'
tRp472
F51.689999999999998
tp473
a(g3
(g4
(S'S10'
I0
I1
tRp474
(I3
S'|'
NNNI10
I1
I0
tbS'SWV415+1.p'
tRp475
g3
(g4
(S'S430'
I0
I1
tRp476
(I3
S'|'
NNNI430
I1
I0
tbS"--definitional-cnf=24 -s --delete-bad-limit=1024000000 --simul-paramod -F1 -WSelectNewComplexAHP --forward-context-sr --split-aggressive --split-clauses=8 --split-reuse-defs --destructive-er-aggressive --destructive-er -tKBO6 -winvfreqrank -c1 -Ginvfreq --tstp-in -H'(10*PNRefinedweight(PreferGoals,1,1,1,2,2,2,0.5),10*PNRefinedweight(PreferNonGoals,2,1,1,1,2,2,2),5*OrientLMaxWeight(ConstPrio,2,1,2,1,1),1*FIFOWeight(ConstPrio))'"
tRp477
g3
(g9
S'\x91\xed|?5\x1e)@'
tRp478
F21.02
tp479
a(g3
(g4
(S'S10'
I0
I1
tRp480
(I3
S'|'
NNNI10
I1
I0
tbS'SWC225+1.p'
tRp481
g3
(g4
(S'S430'
I0
I1
tRp482
(I3
S'|'
NNNI430
I1
I0
tbS"--definitional-cnf=24 -s --delete-bad-limit=1024000000 --simul-paramod -F1 -WSelectNewComplexAHP --forward-context-sr --split-aggressive --split-clauses=8 --split-reuse-defs --destructive-er-aggressive --destructive-er -tKBO6 -winvfreqrank -c1 -Ginvfreq --tstp-in -H'(10*PNRefinedweight(PreferGoals,1,1,1,2,2,2,0.5),10*PNRefinedweight(PreferNonGoals,2,1,1,1,2,2,2),5*OrientLMaxWeight(ConstPrio,2,1,2,1,1),1*FIFOWeight(ConstPrio))'"
tRp483
g3
(g9
S'\x17\xd9\xce\xf7Sc;@'
tRp484
F38.75
tp485
a(g3
(g4
(S'S10'
I0
I1
tRp486
(I3
S'|'
NNNI10
I1
I0
tbS'SWC393+1.p'
tRp487
g3
(g4
(S'S430'
I0
I1
tRp488
(I3
S'|'
NNNI430
I1
I0
tbS"--definitional-cnf=24 -s --delete-bad-limit=1024000000 --simul-paramod -F1 -WSelectNewComplexAHP --forward-context-sr --split-aggressive --split-clauses=8 --split-reuse-defs --destructive-er-aggressive --destructive-er -tKBO6 -winvfreqrank -c1 -Ginvfreq --tstp-in -H'(10*PNRefinedweight(PreferGoals,1,1,1,2,2,2,0.5),10*PNRefinedweight(PreferNonGoals,2,1,1,1,2,2,2),5*OrientLMaxWeight(ConstPrio,2,1,2,1,1),1*FIFOWeight(ConstPrio))'"
tRp489
g3
(g9
S'1\x08\xac\x1cZ\xa43@'
tRp490
F31.170000000000002
tp491
a(g3
(g4
(S'S10'
I0
I1
tRp492
(I3
S'|'
NNNI10
I1
I0
tbS'SYN553-1.p'
tRp493
g3
(g4
(S'S454'
I0
I1
tRp494
(I3
S'|'
NNNI454
I1
I0
tbS"--definitional-cnf=24 --tstp-in --presat-simplify --split-reuse-defs --split-clauses=4 --simul-paramod --forward-context-sr --destructive-er-aggressive --destructive-er --prefer-initial-clauses -tKBO6 -winvfreqrank -c1 -Ginvfreqconjmax -F1 -s --delete-bad-limit=1024000000 -WSelectNewComplexAHPNS -H'(20*ConjectureRelativeSymbolWeight(ConstPrio,0.1, 100, 100, 100, 100, 1.5, 1.5, 1.5),1*Refinedweight(PreferNonGoals,2,1,2,3,0.8),1*FIFOWeight(ConstPrio))'"
tRp495
g3
(g9
S'`\xe5\xd0"\xdb\xf9\xe2?'
tRp496
F0.69999999999999996
tp497
a(g3
(g4
(S'S10'
I0
I1
tRp498
(I3
S'|'
NNNI10
I1
I0
tbS'ANA013-1.p'
tRp499
g3
(g4
(S'S454'
I0
I1
tRp500
(I3
S'|'
NNNI454
I1
I0
tbS"--definitional-cnf=24 --tstp-in --presat-simplify --split-reuse-defs --split-clauses=4 --simul-paramod --forward-context-sr --destructive-er-aggressive --destructive-er --prefer-initial-clauses -tKBO6 -winvfreqrank -c1 -Ginvfreqconjmax -F1 -s --delete-bad-limit=1024000000 -WSelectNewComplexAHPNS -H'(20*ConjectureRelativeSymbolWeight(ConstPrio,0.1, 100, 100, 100, 100, 1.5, 1.5, 1.5),1*Refinedweight(PreferNonGoals,2,1,2,3,0.8),1*FIFOWeight(ConstPrio))'"
tRp501
g3
(g9
S'\xb6\xf3\xfd\xd4x\xe9\xea?'
tRp502
F1.1000000000000001
tp503
a(g3
(g4
(S'S10'
I0
I1
tRp504
(I3
S'|'
NNNI10
I1
I0
tbS'ALG032+1.p'
tRp505
g3
(g4
(S'S454'
I0
I1
tRp506
(I3
S'|'
NNNI454
I1
I0
tbS"--definitional-cnf=24 --tstp-in --presat-simplify --split-reuse-defs --split-clauses=4 --simul-paramod --forward-context-sr --destructive-er-aggressive --destructive-er --prefer-initial-clauses -tKBO6 -winvfreqrank -c1 -Ginvfreqconjmax -F1 -s --delete-bad-limit=1024000000 -WSelectNewComplexAHPNS -H'(20*ConjectureRelativeSymbolWeight(ConstPrio,0.1, 100, 100, 100, 100, 1.5, 1.5, 1.5),1*Refinedweight(PreferNonGoals,2,1,2,3,0.8),1*FIFOWeight(ConstPrio))'"
tRp507
g3
(g9
S'd;\xdfO\x8d\x97\xe6?'
tRp508
F0.71999999999999997
tp509
a(g3
(g4
(S'S10'
I0
I1
tRp510
(I3
S'|'
NNNI10
I1
I0
tbS'MGT046-1.p'
tRp511
g3
(g4
(S'S454'
I0
I1
tRp512
(I3
S'|'
NNNI454
I1
I0
tbS"--definitional-cnf=24 --tstp-in --presat-simplify --split-reuse-defs --split-clauses=4 --simul-paramod --forward-context-sr --destructive-er-aggressive --destructive-er --prefer-initial-clauses -tKBO6 -winvfreqrank -c1 -Ginvfreqconjmax -F1 -s --delete-bad-limit=1024000000 -WSelectNewComplexAHPNS -H'(20*ConjectureRelativeSymbolWeight(ConstPrio,0.1, 100, 100, 100, 100, 1.5, 1.5, 1.5),1*Refinedweight(PreferNonGoals,2,1,2,3,0.8),1*FIFOWeight(ConstPrio))'"
tRp513
g3
(g9
S'=\n\xd7\xa3p\xd5V@'
tRp514
F80.700000000000003
tp515
a(g3
(g4
(S'S10'
I0
I1
tRp516
(I3
S'|'
NNNI10
I1
I0
tbS'SWV277-1.p'
tRp517
g3
(g4
(S'S454'
I0
I1
tRp518
(I3
S'|'
NNNI454
I1
I0
tbS"--definitional-cnf=24 --tstp-in --presat-simplify --split-reuse-defs --split-clauses=4 --simul-paramod --forward-context-sr --destructive-er-aggressive --destructive-er --prefer-initial-clauses -tKBO6 -winvfreqrank -c1 -Ginvfreqconjmax -F1 -s --delete-bad-limit=1024000000 -WSelectNewComplexAHPNS -H'(20*ConjectureRelativeSymbolWeight(ConstPrio,0.1, 100, 100, 100, 100, 1.5, 1.5, 1.5),1*Refinedweight(PreferNonGoals,2,1,2,3,0.8),1*FIFOWeight(ConstPrio))'"
tRp519
g3
(g9
S'H\xe1z\x14\xae\x1fS@'
tRp520
F106.29000000000001
tp521
a(g3
(g4
(S'S10'
I0
I1
tRp522
(I3
S'|'
NNNI10
I1
I0
tbS'GEO053-2.p'
tRp523
g3
(g4
(S'S454'
I0
I1
tRp524
(I3
S'|'
NNNI454
I1
I0
tbS"--definitional-cnf=24 --tstp-in --presat-simplify --split-reuse-defs --split-clauses=4 --simul-paramod --forward-context-sr --destructive-er-aggressive --destructive-er --prefer-initial-clauses -tKBO6 -winvfreqrank -c1 -Ginvfreqconjmax -F1 -s --delete-bad-limit=1024000000 -WSelectNewComplexAHPNS -H'(20*ConjectureRelativeSymbolWeight(ConstPrio,0.1, 100, 100, 100, 100, 1.5, 1.5, 1.5),1*Refinedweight(PreferNonGoals,2,1,2,3,0.8),1*FIFOWeight(ConstPrio))'"
tRp525
g3
(g9
S'Nb\x10X9\x04W@'
tRp526
F80.939999999999998
tp527
a(g3
(g4
(S'S10'
I0
I1
tRp528
(I3
S'|'
NNNI10
I1
I0
tbS'NUM513+3.p'
tRp529
g3
(g4
(S'S454'
I0
I1
tRp530
(I3
S'|'
NNNI454
I1
I0
tbS"--definitional-cnf=24 --tstp-in --presat-simplify --split-reuse-defs --split-clauses=4 --simul-paramod --forward-context-sr --destructive-er-aggressive --destructive-er --prefer-initial-clauses -tKBO6 -winvfreqrank -c1 -Ginvfreqconjmax -F1 -s --delete-bad-limit=1024000000 -WSelectNewComplexAHPNS -H'(20*ConjectureRelativeSymbolWeight(ConstPrio,0.1, 100, 100, 100, 100, 1.5, 1.5, 1.5),1*Refinedweight(PreferNonGoals,2,1,2,3,0.8),1*FIFOWeight(ConstPrio))'"
tRp531
g3
(g9
S'P\x8d\x97n\x12\xabc@'
tRp532
F196.41
tp533
a(g3
(g4
(S'S10'
I0
I1
tRp534
(I3
S'|'
NNNI10
I1
I0
tbS'NUM340+1.p'
tRp535
g3
(g4
(S'S454'
I0
I1
tRp536
(I3
S'|'
NNNI454
I1
I0
tbS"--definitional-cnf=24 --tstp-in --presat-simplify --split-reuse-defs --split-clauses=4 --simul-paramod --forward-context-sr --destructive-er-aggressive --destructive-er --prefer-initial-clauses -tKBO6 -winvfreqrank -c1 -Ginvfreqconjmax -F1 -s --delete-bad-limit=1024000000 -WSelectNewComplexAHPNS -H'(20*ConjectureRelativeSymbolWeight(ConstPrio,0.1, 100, 100, 100, 100, 1.5, 1.5, 1.5),1*Refinedweight(PreferNonGoals,2,1,2,3,0.8),1*FIFOWeight(ConstPrio))'"
tRp537
g3
(g9
S'%\x06\x81\x95C\xf7h@'
tRp538
F213.27000000000001
tp539
a(g3
(g4
(S'S10'
I0
I1
tRp540
(I3
S'|'
NNNI10
I1
I0
tbS'SEU034+1.p'
tRp541
g3
(g4
(S'S454'
I0
I1
tRp542
(I3
S'|'
NNNI454
I1
I0
tbS"--definitional-cnf=24 --tstp-in --presat-simplify --split-reuse-defs --split-clauses=4 --simul-paramod --forward-context-sr --destructive-er-aggressive --destructive-er --prefer-initial-clauses -tKBO6 -winvfreqrank -c1 -Ginvfreqconjmax -F1 -s --delete-bad-limit=1024000000 -WSelectNewComplexAHPNS -H'(20*ConjectureRelativeSymbolWeight(ConstPrio,0.1, 100, 100, 100, 100, 1.5, 1.5, 1.5),1*Refinedweight(PreferNonGoals,2,1,2,3,0.8),1*FIFOWeight(ConstPrio))'"
tRp543
g3
(g9
S'\xd3Mb\x10X\xade@'
tRp544
F96.510000000000005
tp545
a(g3
(g4
(S'S10'
I0
I1
tRp546
(I3
S'|'
NNNI10
I1
I0
tbS'SWB065+1.p'
tRp547
g3
(g4
(S'S454'
I0
I1
tRp548
(I3
S'|'
NNNI454
I1
I0
tbS"--definitional-cnf=24 --tstp-in --presat-simplify --split-reuse-defs --split-clauses=4 --simul-paramod --forward-context-sr --destructive-er-aggressive --destructive-er --prefer-initial-clauses -tKBO6 -winvfreqrank -c1 -Ginvfreqconjmax -F1 -s --delete-bad-limit=1024000000 -WSelectNewComplexAHPNS -H'(20*ConjectureRelativeSymbolWeight(ConstPrio,0.1, 100, 100, 100, 100, 1.5, 1.5, 1.5),1*Refinedweight(PreferNonGoals,2,1,2,3,0.8),1*FIFOWeight(ConstPrio))'"
tRp549
g3
(g9
S'\xd1"\xdb\xf9~\xaa!@'
tRp550
F15.699999999999999
tp551
a(g3
(g4
(S'S10'
I0
I1
tRp552
(I3
S'|'
NNNI10
I1
I0
tbS'CSR083+2.p'
tRp553
g3
(g4
(S'S454'
I0
I1
tRp554
(I3
S'|'
NNNI454
I1
I0
tbS"--definitional-cnf=24 --tstp-in --presat-simplify --split-reuse-defs --split-clauses=4 --simul-paramod --forward-context-sr --destructive-er-aggressive --destructive-er --prefer-initial-clauses -tKBO6 -winvfreqrank -c1 -Ginvfreqconjmax -F1 -s --delete-bad-limit=1024000000 -WSelectNewComplexAHPNS -H'(20*ConjectureRelativeSymbolWeight(ConstPrio,0.1, 100, 100, 100, 100, 1.5, 1.5, 1.5),1*Refinedweight(PreferNonGoals,2,1,2,3,0.8),1*FIFOWeight(ConstPrio))'"
tRp555
g3
(g9
S'\x14\xaeG\xe1z\x94\x1c@'
tRp556
F8.3599999999999994
tp557
a(g3
(g4
(S'S10'
I0
I1
tRp558
(I3
S'|'
NNNI10
I1
I0
tbS'NUM049-1.p'
tRp559
g3
(g4
(S'S454'
I0
I1
tRp560
(I3
S'|'
NNNI454
I1
I0
tbS"--definitional-cnf=24 --tstp-in --presat-simplify --split-reuse-defs --split-clauses=4 --simul-paramod --forward-context-sr --destructive-er-aggressive --destructive-er --prefer-initial-clauses -tKBO6 -winvfreqrank -c1 -Ginvfreqconjmax -F1 -s --delete-bad-limit=1024000000 -WSelectNewComplexAHPNS -H'(20*ConjectureRelativeSymbolWeight(ConstPrio,0.1, 100, 100, 100, 100, 1.5, 1.5, 1.5),1*Refinedweight(PreferNonGoals,2,1,2,3,0.8),1*FIFOWeight(ConstPrio))'"
tRp561
g3
(g9
S'\x1dZd;\xdf\xcf\x15@'
tRp562
F6.4400000000000004
tp563
a(g3
(g4
(S'S10'
I0
I1
tRp564
(I3
S'|'
NNNI10
I1
I0
tbS'CSR100+2.p'
tRp565
g3
(g4
(S'S454'
I0
I1
tRp566
(I3
S'|'
NNNI454
I1
I0
tbS"--definitional-cnf=24 --tstp-in --presat-simplify --split-reuse-defs --split-clauses=4 --simul-paramod --forward-context-sr --destructive-er-aggressive --destructive-er --prefer-initial-clauses -tKBO6 -winvfreqrank -c1 -Ginvfreqconjmax -F1 -s --delete-bad-limit=1024000000 -WSelectNewComplexAHPNS -H'(20*ConjectureRelativeSymbolWeight(ConstPrio,0.1, 100, 100, 100, 100, 1.5, 1.5, 1.5),1*Refinedweight(PreferNonGoals,2,1,2,3,0.8),1*FIFOWeight(ConstPrio))'"
tRp567
g3
(g9
S'J\x0c\x02+\x87Rp@'
tRp568
F207.33000000000001
tp569
a(g3
(g4
(S'S10'
I0
I1
tRp570
(I3
S'|'
NNNI10
I1
I0
tbS'NUM346+1.p'
tRp571
g3
(g4
(S'S454'
I0
I1
tRp572
(I3
S'|'
NNNI454
I1
I0
tbS"--definitional-cnf=24 --tstp-in --presat-simplify --split-reuse-defs --split-clauses=4 --simul-paramod --forward-context-sr --destructive-er-aggressive --destructive-er --prefer-initial-clauses -tKBO6 -winvfreqrank -c1 -Ginvfreqconjmax -F1 -s --delete-bad-limit=1024000000 -WSelectNewComplexAHPNS -H'(20*ConjectureRelativeSymbolWeight(ConstPrio,0.1, 100, 100, 100, 100, 1.5, 1.5, 1.5),1*Refinedweight(PreferNonGoals,2,1,2,3,0.8),1*FIFOWeight(ConstPrio))'"
tRp573
g3
(g9
S'\xa4p=\n\xd71q@'
tRp574
F191.11000000000001
tp575
a(g3
(g4
(S'S10'
I0
I1
tRp576
(I3
S'|'
NNNI10
I1
I0
tbS'RNG035-7.p'
tRp577
g3
(g4
(S'S454'
I0
I1
tRp578
(I3
S'|'
NNNI454
I1
I0
tbS"--definitional-cnf=24 --tstp-in --presat-simplify --split-reuse-defs --split-clauses=4 --simul-paramod --forward-context-sr --destructive-er-aggressive --destructive-er --prefer-initial-clauses -tKBO6 -winvfreqrank -c1 -Ginvfreqconjmax -F1 -s --delete-bad-limit=1024000000 -WSelectNewComplexAHPNS -H'(20*ConjectureRelativeSymbolWeight(ConstPrio,0.1, 100, 100, 100, 100, 1.5, 1.5, 1.5),1*Refinedweight(PreferNonGoals,2,1,2,3,0.8),1*FIFOWeight(ConstPrio))'"
tRp579
g3
(g9
S'/\xdd$\x06\x81\x8dq@'
tRp580
F207.59
tp581
a(g3
(g4
(S'S10'
I0
I1
tRp582
(I3
S'|'
NNNI10
I1
I0
tbS'CSR052+4.p'
tRp583
g3
(g4
(S'S454'
I0
I1
tRp584
(I3
S'|'
NNNI454
I1
I0
tbS"--definitional-cnf=24 --tstp-in --presat-simplify --split-reuse-defs --split-clauses=4 --simul-paramod --forward-context-sr --destructive-er-aggressive --destructive-er --prefer-initial-clauses -tKBO6 -winvfreqrank -c1 -Ginvfreqconjmax -F1 -s --delete-bad-limit=1024000000 -WSelectNewComplexAHPNS -H'(20*ConjectureRelativeSymbolWeight(ConstPrio,0.1, 100, 100, 100, 100, 1.5, 1.5, 1.5),1*Refinedweight(PreferNonGoals,2,1,2,3,0.8),1*FIFOWeight(ConstPrio))'"
tRp585
g3
(g9
S'F\xb6\xf3\xfd\xd4\xf8^@'
tRp586
F100.13
tp587
a(g3
(g4
(S'S10'
I0
I1
tRp588
(I3
S'|'
NNNI10
I1
I0
tbS'SWC084-1.p'
tRp589
g3
(g4
(S'S454'
I0
I1
tRp590
(I3
S'|'
NNNI454
I1
I0
tbS"--definitional-cnf=24 --tstp-in --presat-simplify --split-reuse-defs --split-clauses=4 --simul-paramod --forward-context-sr --destructive-er-aggressive --destructive-er --prefer-initial-clauses -tKBO6 -winvfreqrank -c1 -Ginvfreqconjmax -F1 -s --delete-bad-limit=1024000000 -WSelectNewComplexAHPNS -H'(20*ConjectureRelativeSymbolWeight(ConstPrio,0.1, 100, 100, 100, 100, 1.5, 1.5, 1.5),1*Refinedweight(PreferNonGoals,2,1,2,3,0.8),1*FIFOWeight(ConstPrio))'"
tRp591
g3
(g9
S'\xdb\xf9~j\xbc\x1c[@'
tRp592
F105.78
tp593
a(g3
(g4
(S'S10'
I0
I1
tRp594
(I3
S'|'
NNNI10
I1
I0
tbS'NUM344+1.p'
tRp595
g3
(g4
(S'S454'
I0
I1
tRp596
(I3
S'|'
NNNI454
I1
I0
tbS"--definitional-cnf=24 --tstp-in --presat-simplify --split-reuse-defs --split-clauses=4 --simul-paramod --forward-context-sr --destructive-er-aggressive --destructive-er --prefer-initial-clauses -tKBO6 -winvfreqrank -c1 -Ginvfreqconjmax -F1 -s --delete-bad-limit=1024000000 -WSelectNewComplexAHPNS -H'(20*ConjectureRelativeSymbolWeight(ConstPrio,0.1, 100, 100, 100, 100, 1.5, 1.5, 1.5),1*Refinedweight(PreferNonGoals,2,1,2,3,0.8),1*FIFOWeight(ConstPrio))'"
tRp597
g3
(g9
S'\x1dZd;\xdf\x0f`@'
tRp598
F107.36
tp599
a(g3
(g4
(S'S10'
I0
I1
tRp600
(I3
S'|'
NNNI10
I1
I0
tbS'NUM327+1.p'
tRp601
g3
(g4
(S'S454'
I0
I1
tRp602
(I3
S'|'
NNNI454
I1
I0
tbS"--definitional-cnf=24 --tstp-in --presat-simplify --split-reuse-defs --split-clauses=4 --simul-paramod --forward-context-sr --destructive-er-aggressive --destructive-er --prefer-initial-clauses -tKBO6 -winvfreqrank -c1 -Ginvfreqconjmax -F1 -s --delete-bad-limit=1024000000 -WSelectNewComplexAHPNS -H'(20*ConjectureRelativeSymbolWeight(ConstPrio,0.1, 100, 100, 100, 100, 1.5, 1.5, 1.5),1*Refinedweight(PreferNonGoals,2,1,2,3,0.8),1*FIFOWeight(ConstPrio))'"
tRp603
g3
(g9
S'\x08\xac\x1cZd\x13k@'
tRp604
F158.5
tp605
a(g3
(g4
(S'S10'
I0
I1
tRp606
(I3
S'|'
NNNI10
I1
I0
tbS'CSR108+2.p'
tRp607
g3
(g4
(S'S454'
I0
I1
tRp608
(I3
S'|'
NNNI454
I1
I0
tbS"--definitional-cnf=24 --tstp-in --presat-simplify --split-reuse-defs --split-clauses=4 --simul-paramod --forward-context-sr --destructive-er-aggressive --destructive-er --prefer-initial-clauses -tKBO6 -winvfreqrank -c1 -Ginvfreqconjmax -F1 -s --delete-bad-limit=1024000000 -WSelectNewComplexAHPNS -H'(20*ConjectureRelativeSymbolWeight(ConstPrio,0.1, 100, 100, 100, 100, 1.5, 1.5, 1.5),1*Refinedweight(PreferNonGoals,2,1,2,3,0.8),1*FIFOWeight(ConstPrio))'"
tRp609
g3
(g9
S'u\x93\x18\x04V\xfal@'
tRp610
F172.08000000000001
tp611
a(g3
(g4
(S'S10'
I0
I1
tRp612
(I3
S'|'
NNNI10
I1
I0
tbS'SET144-6.p'
tRp613
g3
(g4
(S'S454'
I0
I1
tRp614
(I3
S'|'
NNNI454
I1
I0
tbS"--definitional-cnf=24 --tstp-in --presat-simplify --split-reuse-defs --split-clauses=4 --simul-paramod --forward-context-sr --destructive-er-aggressive --destructive-er --prefer-initial-clauses -tKBO6 -winvfreqrank -c1 -Ginvfreqconjmax -F1 -s --delete-bad-limit=1024000000 -WSelectNewComplexAHPNS -H'(20*ConjectureRelativeSymbolWeight(ConstPrio,0.1, 100, 100, 100, 100, 1.5, 1.5, 1.5),1*Refinedweight(PreferNonGoals,2,1,2,3,0.8),1*FIFOWeight(ConstPrio))'"
tRp615
g3
(g9
S'\x1dZd;\xdf7i@'
tRp616
F181.40000000000001
tp617
a(g3
(g4
(S'S10'
I0
I1
tRp618
(I3
S'|'
NNNI10
I1
I0
tbS'CSR055+4.p'
tRp619
g3
(g4
(S'S454'
I0
I1
tRp620
(I3
S'|'
NNNI454
I1
I0
tbS"--definitional-cnf=24 --tstp-in --presat-simplify --split-reuse-defs --split-clauses=4 --simul-paramod --forward-context-sr --destructive-er-aggressive --destructive-er --prefer-initial-clauses -tKBO6 -winvfreqrank -c1 -Ginvfreqconjmax -F1 -s --delete-bad-limit=1024000000 -WSelectNewComplexAHPNS -H'(20*ConjectureRelativeSymbolWeight(ConstPrio,0.1, 100, 100, 100, 100, 1.5, 1.5, 1.5),1*Refinedweight(PreferNonGoals,2,1,2,3,0.8),1*FIFOWeight(ConstPrio))'"
tRp621
g3
(g9
S'\xf2\xd2Mb\x10\xd8?@'
tRp622
F23
tp623
a(g3
(g4
(S'S10'
I0
I1
tRp624
(I3
S'|'
NNNI10
I1
I0
tbS'CSR056+4.p'
tRp625
g3
(g4
(S'S454'
I0
I1
tRp626
(I3
S'|'
NNNI454
I1
I0
tbS"--definitional-cnf=24 --tstp-in --presat-simplify --split-reuse-defs --split-clauses=4 --simul-paramod --forward-context-sr --destructive-er-aggressive --destructive-er --prefer-initial-clauses -tKBO6 -winvfreqrank -c1 -Ginvfreqconjmax -F1 -s --delete-bad-limit=1024000000 -WSelectNewComplexAHPNS -H'(20*ConjectureRelativeSymbolWeight(ConstPrio,0.1, 100, 100, 100, 100, 1.5, 1.5, 1.5),1*Refinedweight(PreferNonGoals,2,1,2,3,0.8),1*FIFOWeight(ConstPrio))'"
tRp627
g3
(g9
S'#\xdb\xf9~j,A@'
tRp628
F28.420000000000002
tp629
a(g3
(g4
(S'S10'
I0
I1
tRp630
(I3
S'|'
NNNI10
I1
I0
tbS'SET846-1.p'
tRp631
g3
(g4
(S'S454'
I0
I1
tRp632
(I3
S'|'
NNNI454
I1
I0
tbS"--definitional-cnf=24 --tstp-in --presat-simplify --split-reuse-defs --split-clauses=4 --simul-paramod --forward-context-sr --destructive-er-aggressive --destructive-er --prefer-initial-clauses -tKBO6 -winvfreqrank -c1 -Ginvfreqconjmax -F1 -s --delete-bad-limit=1024000000 -WSelectNewComplexAHPNS -H'(20*ConjectureRelativeSymbolWeight(ConstPrio,0.1, 100, 100, 100, 100, 1.5, 1.5, 1.5),1*Refinedweight(PreferNonGoals,2,1,2,3,0.8),1*FIFOWeight(ConstPrio))'"
tRp633
g3
(g9
S'\xdb\xf9~j\xbcdF@'
tRp634
F46.93
tp635
a(g3
(g4
(S'S10'
I0
I1
tRp636
(I3
S'|'
NNNI10
I1
I0
tbS'SWC093+1.p'
tRp637
g3
(g4
(S'S454'
I0
I1
tRp638
(I3
S'|'
NNNI454
I1
I0
tbS"--definitional-cnf=24 --tstp-in --presat-simplify --split-reuse-defs --split-clauses=4 --simul-paramod --forward-context-sr --destructive-er-aggressive --destructive-er --prefer-initial-clauses -tKBO6 -winvfreqrank -c1 -Ginvfreqconjmax -F1 -s --delete-bad-limit=1024000000 -WSelectNewComplexAHPNS -H'(20*ConjectureRelativeSymbolWeight(ConstPrio,0.1, 100, 100, 100, 100, 1.5, 1.5, 1.5),1*Refinedweight(PreferNonGoals,2,1,2,3,0.8),1*FIFOWeight(ConstPrio))'"
tRp639
g3
(g9
S'\x8d\x97n\x12\x83`7@'
tRp640
F29.440000000000001
tp641
a(g3
(g4
(S'S10'
I0
I1
tRp642
(I3
S'|'
NNNI10
I1
I0
tbS'LAT240-1.p'
tRp643
g3
(g4
(S'S454'
I0
I1
tRp644
(I3
S'|'
NNNI454
I1
I0
tbS"--definitional-cnf=24 --tstp-in --presat-simplify --split-reuse-defs --split-clauses=4 --simul-paramod --forward-context-sr --destructive-er-aggressive --destructive-er --prefer-initial-clauses -tKBO6 -winvfreqrank -c1 -Ginvfreqconjmax -F1 -s --delete-bad-limit=1024000000 -WSelectNewComplexAHPNS -H'(20*ConjectureRelativeSymbolWeight(ConstPrio,0.1, 100, 100, 100, 100, 1.5, 1.5, 1.5),1*Refinedweight(PreferNonGoals,2,1,2,3,0.8),1*FIFOWeight(ConstPrio))'"
tRp645
g3
(g9
S'\x10X9\xb4\xc86:@'
tRp646
F3.3100000000000001
tp647
a(g3
(g4
(S'S10'
I0
I1
tRp648
(I3
S'|'
NNNI10
I1
I0
tbS'SWB031+1.p'
tRp649
g3
(g4
(S'S454'
I0
I1
tRp650
(I3
S'|'
NNNI454
I1
I0
tbS"--definitional-cnf=24 --tstp-in --presat-simplify --split-reuse-defs --split-clauses=4 --simul-paramod --forward-context-sr --destructive-er-aggressive --destructive-er --prefer-initial-clauses -tKBO6 -winvfreqrank -c1 -Ginvfreqconjmax -F1 -s --delete-bad-limit=1024000000 -WSelectNewComplexAHPNS -H'(20*ConjectureRelativeSymbolWeight(ConstPrio,0.1, 100, 100, 100, 100, 1.5, 1.5, 1.5),1*Refinedweight(PreferNonGoals,2,1,2,3,0.8),1*FIFOWeight(ConstPrio))'"
tRp651
g3
(g9
S'm\xe7\xfb\xa9\xf1\x12/@'
tRp652
F17.739999999999998
tp653
atp654
a(I32
(lp655
(g3
(g4
(S'S10'
I0
I1
tRp656
(I3
S'|'
NNNI10
I1
I0
tbS'GEO285+1.p'
tRp657
g3
(g4
(S'S531'
I0
I1
tRp658
(I3
S'|'
NNNI531
I1
I0
tbS"--definitional-cnf=24 --tstp-in --split-clauses=7 --split-reuse-defs --simul-paramod --forward-context-sr --destructive-er-aggressive --destructive-er --presat-simplify --prefer-initial-clauses -tKBO6 -winvfreqrank -c1 -Ginvfreqconjmax -F1 -s --delete-bad-limit=1024000000 -WSelectMaxLComplexAvoidPosPred -H'(4*RelevanceLevelWeight2(SimulateSOS,0,2,1,2,100,100,100,400,1.5,1.5,1),3*ConjectureGeneralSymbolWeight(PreferNonGoals,200,100,200,50,50,1,100,1.5,1.5,1),1*Clauseweight(PreferProcessed,1,1,1),1*FIFOWeight(PreferProcessed))'"
tRp659
g3
(g9
S'\x14\xaeG\xe1z\x14\xee?'
tRp660
F0.95999999999999996
tp661
a(g3
(g4
(S'S10'
I0
I1
tRp662
(I3
S'|'
NNNI10
I1
I0
tbS'RNG060+2.p'
tRp663
g3
(g4
(S'S531'
I0
I1
tRp664
(I3
S'|'
NNNI531
I1
I0
tbS"--definitional-cnf=24 --tstp-in --split-clauses=7 --split-reuse-defs --simul-paramod --forward-context-sr --destructive-er-aggressive --destructive-er --presat-simplify --prefer-initial-clauses -tKBO6 -winvfreqrank -c1 -Ginvfreqconjmax -F1 -s --delete-bad-limit=1024000000 -WSelectMaxLComplexAvoidPosPred -H'(4*RelevanceLevelWeight2(SimulateSOS,0,2,1,2,100,100,100,400,1.5,1.5,1),3*ConjectureGeneralSymbolWeight(PreferNonGoals,200,100,200,50,50,1,100,1.5,1.5,1),1*Clauseweight(PreferProcessed,1,1,1),1*FIFOWeight(PreferProcessed))'"
tRp665
g3
(g9
S'\x81\x95C\x8bl\xe7\xef?'
tRp666
F1.1699999999999999
tp667
a(g3
(g4
(S'S10'
I0
I1
tRp668
(I3
S'|'
NNNI10
I1
I0
tbS'FLD002-3.p'
tRp669
g3
(g4
(S'S531'
I0
I1
tRp670
(I3
S'|'
NNNI531
I1
I0
tbS"--definitional-cnf=24 --tstp-in --split-clauses=7 --split-reuse-defs --simul-paramod --forward-context-sr --destructive-er-aggressive --destructive-er --presat-simplify --prefer-initial-clauses -tKBO6 -winvfreqrank -c1 -Ginvfreqconjmax -F1 -s --delete-bad-limit=1024000000 -WSelectMaxLComplexAvoidPosPred -H'(4*RelevanceLevelWeight2(SimulateSOS,0,2,1,2,100,100,100,400,1.5,1.5,1),3*ConjectureGeneralSymbolWeight(PreferNonGoals,200,100,200,50,50,1,100,1.5,1.5,1),1*Clauseweight(PreferProcessed,1,1,1),1*FIFOWeight(PreferProcessed))'"
tRp671
g3
(g9
S'\x12\x83\xc0\xca\xa1E\xe2?'
tRp672
F0.76000000000000001
tp673
a(g3
(g4
(S'S10'
I0
I1
tRp674
(I3
S'|'
NNNI10
I1
I0
tbS'SWW354+1.p'
tRp675
g3
(g4
(S'S531'
I0
I1
tRp676
(I3
S'|'
NNNI531
I1
I0
tbS"--definitional-cnf=24 --tstp-in --split-clauses=7 --split-reuse-defs --simul-paramod --forward-context-sr --destructive-er-aggressive --destructive-er --presat-simplify --prefer-initial-clauses -tKBO6 -winvfreqrank -c1 -Ginvfreqconjmax -F1 -s --delete-bad-limit=1024000000 -WSelectMaxLComplexAvoidPosPred -H'(4*RelevanceLevelWeight2(SimulateSOS,0,2,1,2,100,100,100,400,1.5,1.5,1),3*ConjectureGeneralSymbolWeight(PreferNonGoals,200,100,200,50,50,1,100,1.5,1.5,1),1*Clauseweight(PreferProcessed,1,1,1),1*FIFOWeight(PreferProcessed))'"
tRp677
g3
(g9
S'sh\x91\xed|_N@'
tRp678
F59.659999999999997
tp679
a(g3
(g4
(S'S10'
I0
I1
tRp680
(I3
S'|'
NNNI10
I1
I0
tbS'LAT296+1.p'
tRp681
g3
(g4
(S'S531'
I0
I1
tRp682
(I3
S'|'
NNNI531
I1
I0
tbS"--definitional-cnf=24 --tstp-in --split-clauses=7 --split-reuse-defs --simul-paramod --forward-context-sr --destructive-er-aggressive --destructive-er --presat-simplify --prefer-initial-clauses -tKBO6 -winvfreqrank -c1 -Ginvfreqconjmax -F1 -s --delete-bad-limit=1024000000 -WSelectMaxLComplexAvoidPosPred -H'(4*RelevanceLevelWeight2(SimulateSOS,0,2,1,2,100,100,100,400,1.5,1.5,1),3*ConjectureGeneralSymbolWeight(PreferNonGoals,200,100,200,50,50,1,100,1.5,1.5,1),1*Clauseweight(PreferProcessed,1,1,1),1*FIFOWeight(PreferProcessed))'"
tRp683
g3
(g9
S'\x85\xebQ\xb8\x1eEX@'
tRp684
F138.81999999999999
tp685
a(g3
(g4
(S'S10'
I0
I1
tRp686
(I3
S'|'
NNNI10
I1
I0
tbS'SWW372+1.p'
tRp687
g3
(g4
(S'S531'
I0
I1
tRp688
(I3
S'|'
NNNI531
I1
I0
tbS"--definitional-cnf=24 --tstp-in --split-clauses=7 --split-reuse-defs --simul-paramod --forward-context-sr --destructive-er-aggressive --destructive-er --presat-simplify --prefer-initial-clauses -tKBO6 -winvfreqrank -c1 -Ginvfreqconjmax -F1 -s --delete-bad-limit=1024000000 -WSelectMaxLComplexAvoidPosPred -H'(4*RelevanceLevelWeight2(SimulateSOS,0,2,1,2,100,100,100,400,1.5,1.5,1),3*ConjectureGeneralSymbolWeight(PreferNonGoals,200,100,200,50,50,1,100,1.5,1.5,1),1*Clauseweight(PreferProcessed,1,1,1),1*FIFOWeight(PreferProcessed))'"
tRp689
g3
(g9
S'\xecQ\xb8\x1e\x85\x8bO@'
tRp690
F62.100000000000001
tp691
a(g3
(g4
(S'S10'
I0
I1
tRp692
(I3
S'|'
NNNI10
I1
I0
tbS'LCL050-1.p'
tRp693
g3
(g4
(S'S531'
I0
I1
tRp694
(I3
S'|'
NNNI531
I1
I0
tbS"--definitional-cnf=24 --tstp-in --split-clauses=7 --split-reuse-defs --simul-paramod --forward-context-sr --destructive-er-aggressive --destructive-er --presat-simplify --prefer-initial-clauses -tKBO6 -winvfreqrank -c1 -Ginvfreqconjmax -F1 -s --delete-bad-limit=1024000000 -WSelectMaxLComplexAvoidPosPred -H'(4*RelevanceLevelWeight2(SimulateSOS,0,2,1,2,100,100,100,400,1.5,1.5,1),3*ConjectureGeneralSymbolWeight(PreferNonGoals,200,100,200,50,50,1,100,1.5,1.5,1),1*Clauseweight(PreferProcessed,1,1,1),1*FIFOWeight(PreferProcessed))'"
tRp695
g3
(g9
S'\xdd$\x06\x81\x95\x0fd@'
tRp696
F107.41
tp697
a(g3
(g4
(S'S10'
I0
I1
tRp698
(I3
S'|'
NNNI10
I1
I0
tbS'SWC345+1.p'
tRp699
g3
(g4
(S'S531'
I0
I1
tRp700
(I3
S'|'
NNNI531
I1
I0
tbS"--definitional-cnf=24 --tstp-in --split-clauses=7 --split-reuse-defs --simul-paramod --forward-context-sr --destructive-er-aggressive --destructive-er --presat-simplify --prefer-initial-clauses -tKBO6 -winvfreqrank -c1 -Ginvfreqconjmax -F1 -s --delete-bad-limit=1024000000 -WSelectMaxLComplexAvoidPosPred -H'(4*RelevanceLevelWeight2(SimulateSOS,0,2,1,2,100,100,100,400,1.5,1.5,1),3*ConjectureGeneralSymbolWeight(PreferNonGoals,200,100,200,50,50,1,100,1.5,1.5,1),1*Clauseweight(PreferProcessed,1,1,1),1*FIFOWeight(PreferProcessed))'"
tRp701
g3
(g9
S'\xfe\xd4x\xe9&Ud@'
tRp702
F209.43000000000001
tp703
a(g3
(g4
(S'S10'
I0
I1
tRp704
(I3
S'|'
NNNI10
I1
I0
tbS'SWC329+1.p'
tRp705
g3
(g4
(S'S531'
I0
I1
tRp706
(I3
S'|'
NNNI531
I1
I0
tbS"--definitional-cnf=24 --tstp-in --split-clauses=7 --split-reuse-defs --simul-paramod --forward-context-sr --destructive-er-aggressive --destructive-er --presat-simplify --prefer-initial-clauses -tKBO6 -winvfreqrank -c1 -Ginvfreqconjmax -F1 -s --delete-bad-limit=1024000000 -WSelectMaxLComplexAvoidPosPred -H'(4*RelevanceLevelWeight2(SimulateSOS,0,2,1,2,100,100,100,400,1.5,1.5,1),3*ConjectureGeneralSymbolWeight(PreferNonGoals,200,100,200,50,50,1,100,1.5,1.5,1),1*Clauseweight(PreferProcessed,1,1,1),1*FIFOWeight(PreferProcessed))'"
tRp707
g3
(g9
S'm\xe7\xfb\xa9\xf1\xfec@'
tRp708
F201.74000000000001
tp709
a(g3
(g4
(S'S10'
I0
I1
tRp710
(I3
S'|'
NNNI10
I1
I0
tbS'CSR041+3.p'
tRp711
g3
(g4
(S'S531'
I0
I1
tRp712
(I3
S'|'
NNNI531
I1
I0
tbS"--definitional-cnf=24 --tstp-in --split-clauses=7 --split-reuse-defs --simul-paramod --forward-context-sr --destructive-er-aggressive --destructive-er --presat-simplify --prefer-initial-clauses -tKBO6 -winvfreqrank -c1 -Ginvfreqconjmax -F1 -s --delete-bad-limit=1024000000 -WSelectMaxLComplexAvoidPosPred -H'(4*RelevanceLevelWeight2(SimulateSOS,0,2,1,2,100,100,100,400,1.5,1.5,1),3*ConjectureGeneralSymbolWeight(PreferNonGoals,200,100,200,50,50,1,100,1.5,1.5,1),1*Clauseweight(PreferProcessed,1,1,1),1*FIFOWeight(PreferProcessed))'"
tRp713
g3
(g9
S'\xf8S\xe3\xa5\x9b\xc4\xf8?'
tRp714
F2.0600000000000001
tp715
a(g3
(g4
(S'S10'
I0
I1
tRp716
(I3
S'|'
NNNI10
I1
I0
tbS'ROB005-1.p'
tRp717
g3
(g4
(S'S531'
I0
I1
tRp718
(I3
S'|'
NNNI531
I1
I0
tbS"--definitional-cnf=24 --tstp-in --split-clauses=7 --split-reuse-defs --simul-paramod --forward-context-sr --destructive-er-aggressive --destructive-er --presat-simplify --prefer-initial-clauses -tKBO6 -winvfreqrank -c1 -Ginvfreqconjmax -F1 -s --delete-bad-limit=1024000000 -WSelectMaxLComplexAvoidPosPred -H'(4*RelevanceLevelWeight2(SimulateSOS,0,2,1,2,100,100,100,400,1.5,1.5,1),3*ConjectureGeneralSymbolWeight(PreferNonGoals,200,100,200,50,50,1,100,1.5,1.5,1),1*Clauseweight(PreferProcessed,1,1,1),1*FIFOWeight(PreferProcessed))'"
tRp719
g3
(g9
S'\xd1"\xdb\xf9~j\x19@'
tRp720
F6.75
tp721
a(g3
(g4
(S'S10'
I0
I1
tRp722
(I3
S'|'
NNNI10
I1
I0
tbS'CSR106+7.p'
tRp723
g3
(g4
(S'S531'
I0
I1
tRp724
(I3
S'|'
NNNI531
I1
I0
tbS"--definitional-cnf=24 --tstp-in --split-clauses=7 --split-reuse-defs --simul-paramod --forward-context-sr --destructive-er-aggressive --destructive-er --presat-simplify --prefer-initial-clauses -tKBO6 -winvfreqrank -c1 -Ginvfreqconjmax -F1 -s --delete-bad-limit=1024000000 -WSelectMaxLComplexAvoidPosPred -H'(4*RelevanceLevelWeight2(SimulateSOS,0,2,1,2,100,100,100,400,1.5,1.5,1),3*ConjectureGeneralSymbolWeight(PreferNonGoals,200,100,200,50,50,1,100,1.5,1.5,1),1*Clauseweight(PreferProcessed,1,1,1),1*FIFOWeight(PreferProcessed))'"
tRp725
g3
(g9
S'\x81\x95C\x8bl\xe7\x1c@'
tRp726
F7.7199999999999998
tp727
a(g3
(g4
(S'S10'
I0
I1
tRp728
(I3
S'|'
NNNI10
I1
I0
tbS'KLE019+1.p'
tRp729
g3
(g4
(S'S531'
I0
I1
tRp730
(I3
S'|'
NNNI531
I1
I0
tbS"--definitional-cnf=24 --tstp-in --split-clauses=7 --split-reuse-defs --simul-paramod --forward-context-sr --destructive-er-aggressive --destructive-er --presat-simplify --prefer-initial-clauses -tKBO6 -winvfreqrank -c1 -Ginvfreqconjmax -F1 -s --delete-bad-limit=1024000000 -WSelectMaxLComplexAvoidPosPred -H'(4*RelevanceLevelWeight2(SimulateSOS,0,2,1,2,100,100,100,400,1.5,1.5,1),3*ConjectureGeneralSymbolWeight(PreferNonGoals,200,100,200,50,50,1,100,1.5,1.5,1),1*Clauseweight(PreferProcessed,1,1,1),1*FIFOWeight(PreferProcessed))'"
tRp731
g3
(g9
S'o\x12\x83\xc0\xcakp@'
tRp732
F285.27999999999997
tp733
a(g3
(g4
(S'S14'
I0
I1
tRp734
(I3
S'|'
NNNI14
I1
I0
tbS'SWV501-1.040.p'
tRp735
g3
(g4
(S'S531'
I0
I1
tRp736
(I3
S'|'
NNNI531
I1
I0
tbS"--definitional-cnf=24 --tstp-in --split-clauses=7 --split-reuse-defs --simul-paramod --forward-context-sr --destructive-er-aggressive --destructive-er --presat-simplify --prefer-initial-clauses -tKBO6 -winvfreqrank -c1 -Ginvfreqconjmax -F1 -s --delete-bad-limit=1024000000 -WSelectMaxLComplexAvoidPosPred -H'(4*RelevanceLevelWeight2(SimulateSOS,0,2,1,2,100,100,100,400,1.5,1.5,1),3*ConjectureGeneralSymbolWeight(PreferNonGoals,200,100,200,50,50,1,100,1.5,1.5,1),1*Clauseweight(PreferProcessed,1,1,1),1*FIFOWeight(PreferProcessed))'"
tRp737
g3
(g9
S'\xf4\xfd\xd4x\xe9\x02r@'
tRp738
F201.44999999999999
tp739
a(g3
(g4
(S'S10'
I0
I1
tRp740
(I3
S'|'
NNNI10
I1
I0
tbS'SWW332+1.p'
tRp741
g3
(g4
(S'S531'
I0
I1
tRp742
(I3
S'|'
NNNI531
I1
I0
tbS"--definitional-cnf=24 --tstp-in --split-clauses=7 --split-reuse-defs --simul-paramod --forward-context-sr --destructive-er-aggressive --destructive-er --presat-simplify --prefer-initial-clauses -tKBO6 -winvfreqrank -c1 -Ginvfreqconjmax -F1 -s --delete-bad-limit=1024000000 -WSelectMaxLComplexAvoidPosPred -H'(4*RelevanceLevelWeight2(SimulateSOS,0,2,1,2,100,100,100,400,1.5,1.5,1),3*ConjectureGeneralSymbolWeight(PreferNonGoals,200,100,200,50,50,1,100,1.5,1.5,1),1*Clauseweight(PreferProcessed,1,1,1),1*FIFOWeight(PreferProcessed))'"
tRp743
g3
(g9
S'\x00\x00\x00\x00\x00\xe6p@'
tRp744
F292.27999999999997
tp745
a(g3
(g4
(S'S10'
I0
I1
tRp746
(I3
S'|'
NNNI10
I1
I0
tbS'GEO279+1.p'
tRp747
g3
(g4
(S'S531'
I0
I1
tRp748
(I3
S'|'
NNNI531
I1
I0
tbS"--definitional-cnf=24 --tstp-in --split-clauses=7 --split-reuse-defs --simul-paramod --forward-context-sr --destructive-er-aggressive --destructive-er --presat-simplify --prefer-initial-clauses -tKBO6 -winvfreqrank -c1 -Ginvfreqconjmax -F1 -s --delete-bad-limit=1024000000 -WSelectMaxLComplexAvoidPosPred -H'(4*RelevanceLevelWeight2(SimulateSOS,0,2,1,2,100,100,100,400,1.5,1.5,1),3*ConjectureGeneralSymbolWeight(PreferNonGoals,200,100,200,50,50,1,100,1.5,1.5,1),1*Clauseweight(PreferProcessed,1,1,1),1*FIFOWeight(PreferProcessed))'"
tRp749
g3
(g9
S'\xfc\xa9\xf1\xd2M\xaa`@'
tRp750
F86.959999999999994
tp751
a(g3
(g4
(S'S10'
I0
I1
tRp752
(I3
S'|'
NNNI10
I1
I0
tbS'SWC066-1.p'
tRp753
g3
(g4
(S'S531'
I0
I1
tRp754
(I3
S'|'
NNNI531
I1
I0
tbS"--definitional-cnf=24 --tstp-in --split-clauses=7 --split-reuse-defs --simul-paramod --forward-context-sr --destructive-er-aggressive --destructive-er --presat-simplify --prefer-initial-clauses -tKBO6 -winvfreqrank -c1 -Ginvfreqconjmax -F1 -s --delete-bad-limit=1024000000 -WSelectMaxLComplexAvoidPosPred -H'(4*RelevanceLevelWeight2(SimulateSOS,0,2,1,2,100,100,100,400,1.5,1.5,1),3*ConjectureGeneralSymbolWeight(PreferNonGoals,200,100,200,50,50,1,100,1.5,1.5,1),1*Clauseweight(PreferProcessed,1,1,1),1*FIFOWeight(PreferProcessed))'"
tRp755
g3
(g9
S'\xe9&1\x08\xac|]@'
tRp756
F141.62
tp757
a(g3
(g4
(S'S10'
I0
I1
tRp758
(I3
S'|'
NNNI10
I1
I0
tbS'NUM297+1.p'
tRp759
g3
(g4
(S'S531'
I0
I1
tRp760
(I3
S'|'
NNNI531
I1
I0
tbS"--definitional-cnf=24 --tstp-in --split-clauses=7 --split-reuse-defs --simul-paramod --forward-context-sr --destructive-er-aggressive --destructive-er --presat-simplify --prefer-initial-clauses -tKBO6 -winvfreqrank -c1 -Ginvfreqconjmax -F1 -s --delete-bad-limit=1024000000 -WSelectMaxLComplexAvoidPosPred -H'(4*RelevanceLevelWeight2(SimulateSOS,0,2,1,2,100,100,100,400,1.5,1.5,1),3*ConjectureGeneralSymbolWeight(PreferNonGoals,200,100,200,50,50,1,100,1.5,1.5,1),1*Clauseweight(PreferProcessed,1,1,1),1*FIFOWeight(PreferProcessed))'"
tRp761
g3
(g9
S'1\x08\xac\x1cZLa@'
tRp762
F129.75999999999999
tp763
a(g3
(g4
(S'S10'
I0
I1
tRp764
(I3
S'|'
NNNI10
I1
I0
tbS'ANA039-1.p'
tRp765
g3
(g4
(S'S531'
I0
I1
tRp766
(I3
S'|'
NNNI531
I1
I0
tbS"--definitional-cnf=24 --tstp-in --split-clauses=7 --split-reuse-defs --simul-paramod --forward-context-sr --destructive-er-aggressive --destructive-er --presat-simplify --prefer-initial-clauses -tKBO6 -winvfreqrank -c1 -Ginvfreqconjmax -F1 -s --delete-bad-limit=1024000000 -WSelectMaxLComplexAvoidPosPred -H'(4*RelevanceLevelWeight2(SimulateSOS,0,2,1,2,100,100,100,400,1.5,1.5,1),3*ConjectureGeneralSymbolWeight(PreferNonGoals,200,100,200,50,50,1,100,1.5,1.5,1),1*Clauseweight(PreferProcessed,1,1,1),1*FIFOWeight(PreferProcessed))'"
tRp767
g3
(g9
S'\xb4\xc8v\xbe\x9f\xa6k@'
tRp768
F245.34
tp769
a(g3
(g4
(S'S10'
I0
I1
tRp770
(I3
S'|'
NNNI10
I1
I0
tbS'SCT043-1.p'
tRp771
g3
(g4
(S'S531'
I0
I1
tRp772
(I3
S'|'
NNNI531
I1
I0
tbS"--definitional-cnf=24 --tstp-in --split-clauses=7 --split-reuse-defs --simul-paramod --forward-context-sr --destructive-er-aggressive --destructive-er --presat-simplify --prefer-initial-clauses -tKBO6 -winvfreqrank -c1 -Ginvfreqconjmax -F1 -s --delete-bad-limit=1024000000 -WSelectMaxLComplexAvoidPosPred -H'(4*RelevanceLevelWeight2(SimulateSOS,0,2,1,2,100,100,100,400,1.5,1.5,1),3*ConjectureGeneralSymbolWeight(PreferNonGoals,200,100,200,50,50,1,100,1.5,1.5,1),1*Clauseweight(PreferProcessed,1,1,1),1*FIFOWeight(PreferProcessed))'"
tRp773
g3
(g9
S'\x00\x00\x00\x00\x00\\m@'
tRp774
F275.22000000000003
tp775
a(g3
(g4
(S'S10'
I0
I1
tRp776
(I3
S'|'
NNNI10
I1
I0
tbS'SWV234+1.p'
tRp777
g3
(g4
(S'S531'
I0
I1
tRp778
(I3
S'|'
NNNI531
I1
I0
tbS"--definitional-cnf=24 --tstp-in --split-clauses=7 --split-reuse-defs --simul-paramod --forward-context-sr --destructive-er-aggressive --destructive-er --presat-simplify --prefer-initial-clauses -tKBO6 -winvfreqrank -c1 -Ginvfreqconjmax -F1 -s --delete-bad-limit=1024000000 -WSelectMaxLComplexAvoidPosPred -H'(4*RelevanceLevelWeight2(SimulateSOS,0,2,1,2,100,100,100,400,1.5,1.5,1),3*ConjectureGeneralSymbolWeight(PreferNonGoals,200,100,200,50,50,1,100,1.5,1.5,1),1*Clauseweight(PreferProcessed,1,1,1),1*FIFOWeight(PreferProcessed))'"
tRp779
g3
(g9
S'q=\n\xd7\xa3\xfcl@'
tRp780
F-1
tp781
a(g3
(g4
(S'S10'
I0
I1
tRp782
(I3
S'|'
NNNI10
I1
I0
tbS'SWB044+1.p'
tRp783
g3
(g4
(S'S531'
I0
I1
tRp784
(I3
S'|'
NNNI531
I1
I0
tbS"--definitional-cnf=24 --tstp-in --split-clauses=7 --split-reuse-defs --simul-paramod --forward-context-sr --destructive-er-aggressive --destructive-er --presat-simplify --prefer-initial-clauses -tKBO6 -winvfreqrank -c1 -Ginvfreqconjmax -F1 -s --delete-bad-limit=1024000000 -WSelectMaxLComplexAvoidPosPred -H'(4*RelevanceLevelWeight2(SimulateSOS,0,2,1,2,100,100,100,400,1.5,1.5,1),3*ConjectureGeneralSymbolWeight(PreferNonGoals,200,100,200,50,50,1,100,1.5,1.5,1),1*Clauseweight(PreferProcessed,1,1,1),1*FIFOWeight(PreferProcessed))'"
tRp785
g3
(g9
S'33333SJ@'
tRp786
F79.599999999999994
tp787
a(g3
(g4
(S'S10'
I0
I1
tRp788
(I3
S'|'
NNNI10
I1
I0
tbS'ALG156+1.p'
tRp789
g3
(g4
(S'S531'
I0
I1
tRp790
(I3
S'|'
NNNI531
I1
I0
tbS"--definitional-cnf=24 --tstp-in --split-clauses=7 --split-reuse-defs --simul-paramod --forward-context-sr --destructive-er-aggressive --destructive-er --presat-simplify --prefer-initial-clauses -tKBO6 -winvfreqrank -c1 -Ginvfreqconjmax -F1 -s --delete-bad-limit=1024000000 -WSelectMaxLComplexAvoidPosPred -H'(4*RelevanceLevelWeight2(SimulateSOS,0,2,1,2,100,100,100,400,1.5,1.5,1),3*ConjectureGeneralSymbolWeight(PreferNonGoals,200,100,200,50,50,1,100,1.5,1.5,1),1*Clauseweight(PreferProcessed,1,1,1),1*FIFOWeight(PreferProcessed))'"
tRp791
g3
(g9
S'T\xe3\xa5\x9b\xc4\xe0D@'
tRp792
F65.700000000000003
tp793
a(g3
(g4
(S'S10'
I0
I1
tRp794
(I3
S'|'
NNNI10
I1
I0
tbS'SYN450-1.p'
tRp795
g3
(g4
(S'S531'
I0
I1
tRp796
(I3
S'|'
NNNI531
I1
I0
tbS"--definitional-cnf=24 --tstp-in --split-clauses=7 --split-reuse-defs --simul-paramod --forward-context-sr --destructive-er-aggressive --destructive-er --presat-simplify --prefer-initial-clauses -tKBO6 -winvfreqrank -c1 -Ginvfreqconjmax -F1 -s --delete-bad-limit=1024000000 -WSelectMaxLComplexAvoidPosPred -H'(4*RelevanceLevelWeight2(SimulateSOS,0,2,1,2,100,100,100,400,1.5,1.5,1),3*ConjectureGeneralSymbolWeight(PreferNonGoals,200,100,200,50,50,1,100,1.5,1.5,1),1*Clauseweight(PreferProcessed,1,1,1),1*FIFOWeight(PreferProcessed))'"
tRp797
g3
(g9
S'd;\xdfO\x8d7>@'
tRp798
F47.630000000000003
tp799
a(g3
(g4
(S'S10'
I0
I1
tRp800
(I3
S'|'
NNNI10
I1
I0
tbS'REL026-3.p'
tRp801
g3
(g4
(S'S531'
I0
I1
tRp802
(I3
S'|'
NNNI531
I1
I0
tbS"--definitional-cnf=24 --tstp-in --split-clauses=7 --split-reuse-defs --simul-paramod --forward-context-sr --destructive-er-aggressive --destructive-er --presat-simplify --prefer-initial-clauses -tKBO6 -winvfreqrank -c1 -Ginvfreqconjmax -F1 -s --delete-bad-limit=1024000000 -WSelectMaxLComplexAvoidPosPred -H'(4*RelevanceLevelWeight2(SimulateSOS,0,2,1,2,100,100,100,400,1.5,1.5,1),3*ConjectureGeneralSymbolWeight(PreferNonGoals,200,100,200,50,50,1,100,1.5,1.5,1),1*Clauseweight(PreferProcessed,1,1,1),1*FIFOWeight(PreferProcessed))'"
tRp803
g3
(g9
S'\xb8\x1e\x85\xebQX3@'
tRp804
F20.670000000000002
tp805
a(g3
(g4
(S'S10'
I0
I1
tRp806
(I3
S'|'
NNNI10
I1
I0
tbS'FLD013-1.p'
tRp807
g3
(g4
(S'S531'
I0
I1
tRp808
(I3
S'|'
NNNI531
I1
I0
tbS"--definitional-cnf=24 --tstp-in --split-clauses=7 --split-reuse-defs --simul-paramod --forward-context-sr --destructive-er-aggressive --destructive-er --presat-simplify --prefer-initial-clauses -tKBO6 -winvfreqrank -c1 -Ginvfreqconjmax -F1 -s --delete-bad-limit=1024000000 -WSelectMaxLComplexAvoidPosPred -H'(4*RelevanceLevelWeight2(SimulateSOS,0,2,1,2,100,100,100,400,1.5,1.5,1),3*ConjectureGeneralSymbolWeight(PreferNonGoals,200,100,200,50,50,1,100,1.5,1.5,1),1*Clauseweight(PreferProcessed,1,1,1),1*FIFOWeight(PreferProcessed))'"
tRp809
g3
(g9
S'\xdb\xf9~j\xbc\x140@'
tRp810
F21.079999999999998
tp811
a(g3
(g4
(S'S10'
I0
I1
tRp812
(I3
S'|'
NNNI10
I1
I0
tbS'SWW216+1.p'
tRp813
g3
(g4
(S'S531'
I0
I1
tRp814
(I3
S'|'
NNNI531
I1
I0
tbS"--definitional-cnf=24 --tstp-in --split-clauses=7 --split-reuse-defs --simul-paramod --forward-context-sr --destructive-er-aggressive --destructive-er --presat-simplify --prefer-initial-clauses -tKBO6 -winvfreqrank -c1 -Ginvfreqconjmax -F1 -s --delete-bad-limit=1024000000 -WSelectMaxLComplexAvoidPosPred -H'(4*RelevanceLevelWeight2(SimulateSOS,0,2,1,2,100,100,100,400,1.5,1.5,1),3*ConjectureGeneralSymbolWeight(PreferNonGoals,200,100,200,50,50,1,100,1.5,1.5,1),1*Clauseweight(PreferProcessed,1,1,1),1*FIFOWeight(PreferProcessed))'"
tRp815
g3
(g9
S'9\xb4\xc8v\xbe\x1f-@'
tRp816
F17.73
tp817
a(g3
(g4
(S'S10'
I0
I1
tRp818
(I3
S'|'
NNNI10
I1
I0
tbS'GRP201-1.p'
tRp819
g3
(g4
(S'S434'
I0
I1
tRp820
(I3
S'|'
NNNI434
I1
I0
tbS"--definitional-cnf=24 -s --delete-bad-limit=1024000000 -F1 --simul-paramod -WSelectComplexAHP --split-clauses=4 --split-reuse-defs --forward-context-sr --destructive-er-aggressive --destructive-er -tKBO6 -winvfreqrank -c1 -Ginvfreq --prefer-initial-clauses --tstp-in -H'(10*Refinedweight(PreferGoals,1,2,2,2,0.5),10*Refinedweight(PreferNonGoals,2,1,2,2,2),3*OrientLMaxWeight(ConstPrio,2,1,2,1,1),2*ClauseWeightAge(ConstPrio,1,1,1,3))'"
tRp821
g3
(g9
S'\xecQ\xb8\x1e\x85\xeb\xe1?'
tRp822
F0.69999999999999996
tp823
a(g3
(g4
(S'S10'
I0
I1
tRp824
(I3
S'|'
NNNI10
I1
I0
tbS'CSR103+1.p'
tRp825
g3
(g4
(S'S434'
I0
I1
tRp826
(I3
S'|'
NNNI434
I1
I0
tbS"--definitional-cnf=24 -s --delete-bad-limit=1024000000 -F1 --simul-paramod -WSelectComplexAHP --split-clauses=4 --split-reuse-defs --forward-context-sr --destructive-er-aggressive --destructive-er -tKBO6 -winvfreqrank -c1 -Ginvfreq --prefer-initial-clauses --tstp-in -H'(10*Refinedweight(PreferGoals,1,2,2,2,0.5),10*Refinedweight(PreferNonGoals,2,1,2,2,2),3*OrientLMaxWeight(ConstPrio,2,1,2,1,1),2*ClauseWeightAge(ConstPrio,1,1,1,3))'"
tRp827
g3
(g9
S'\xb8\x1e\x85\xebQ\xb8\xe6?'
tRp828
F0.75
tp829
a(g3
(g4
(S'S10'
I0
I1
tRp830
(I3
S'|'
NNNI10
I1
I0
tbS'CSR048+3.p'
tRp831
g3
(g4
(S'S434'
I0
I1
tRp832
(I3
S'|'
NNNI434
I1
I0
tbS"--definitional-cnf=24 -s --delete-bad-limit=1024000000 -F1 --simul-paramod -WSelectComplexAHP --split-clauses=4 --split-reuse-defs --forward-context-sr --destructive-er-aggressive --destructive-er -tKBO6 -winvfreqrank -c1 -Ginvfreq --prefer-initial-clauses --tstp-in -H'(10*Refinedweight(PreferGoals,1,2,2,2,0.5),10*Refinedweight(PreferNonGoals,2,1,2,2,2),3*OrientLMaxWeight(ConstPrio,2,1,2,1,1),2*ClauseWeightAge(ConstPrio,1,1,1,3))'"
tRp833
g3
(g9
S'\x12\x83\xc0\xca\xa1E\xe6?'
tRp834
F0.89000000000000001
tp835
a(g3
(g4
(S'S10'
I0
I1
tRp836
(I3
S'|'
NNNI10
I1
I0
tbS'SWV307-1.p'
tRp837
g3
(g4
(S'S434'
I0
I1
tRp838
(I3
S'|'
NNNI434
I1
I0
tbS"--definitional-cnf=24 -s --delete-bad-limit=1024000000 -F1 --simul-paramod -WSelectComplexAHP --split-clauses=4 --split-reuse-defs --forward-context-sr --destructive-er-aggressive --destructive-er -tKBO6 -winvfreqrank -c1 -Ginvfreq --prefer-initial-clauses --tstp-in -H'(10*Refinedweight(PreferGoals,1,2,2,2,0.5),10*Refinedweight(PreferNonGoals,2,1,2,2,2),3*OrientLMaxWeight(ConstPrio,2,1,2,1,1),2*ClauseWeightAge(ConstPrio,1,1,1,3))'"
tRp839
g3
(g9
S'\x02+\x87\x16\xd9\x9eU@'
tRp840
F98.640000000000001
tp841
a(g3
(g4
(S'S10'
I0
I1
tRp842
(I3
S'|'
NNNI10
I1
I0
tbS'NUM425+1.p'
tRp843
g3
(g4
(S'S434'
I0
I1
tRp844
(I3
S'|'
NNNI434
I1
I0
tbS"--definitional-cnf=24 -s --delete-bad-limit=1024000000 -F1 --simul-paramod -WSelectComplexAHP --split-clauses=4 --split-reuse-defs --forward-context-sr --destructive-er-aggressive --destructive-er -tKBO6 -winvfreqrank -c1 -Ginvfreq --prefer-initial-clauses --tstp-in -H'(10*Refinedweight(PreferGoals,1,2,2,2,0.5),10*Refinedweight(PreferNonGoals,2,1,2,2,2),3*OrientLMaxWeight(ConstPrio,2,1,2,1,1),2*ClauseWeightAge(ConstPrio,1,1,1,3))'"
tRp845
g3
(g9
S'\xf4\xfd\xd4x\xe9\xeeQ@'
tRp846
F93.989999999999995
tp847
a(g3
(g4
(S'S10'
I0
I1
tRp848
(I3
S'|'
NNNI10
I1
I0
tbS'NUM467+2.p'
tRp849
g3
(g4
(S'S434'
I0
I1
tRp850
(I3
S'|'
NNNI434
I1
I0
tbS"--definitional-cnf=24 -s --delete-bad-limit=1024000000 -F1 --simul-paramod -WSelectComplexAHP --split-clauses=4 --split-reuse-defs --forward-context-sr --destructive-er-aggressive --destructive-er -tKBO6 -winvfreqrank -c1 -Ginvfreq --prefer-initial-clauses --tstp-in -H'(10*Refinedweight(PreferGoals,1,2,2,2,0.5),10*Refinedweight(PreferNonGoals,2,1,2,2,2),3*OrientLMaxWeight(ConstPrio,2,1,2,1,1),2*ClauseWeightAge(ConstPrio,1,1,1,3))'"
tRp851
g3
(g9
S'\x14\xaeG\xe1z\xfcQ@'
tRp852
F81.359999999999999
tp853
a(g3
(g4
(S'S10'
I0
I1
tRp854
(I3
S'|'
NNNI10
I1
I0
tbS'SWC052+1.p'
tRp855
g3
(g4
(S'S434'
I0
I1
tRp856
(I3
S'|'
NNNI434
I1
I0
tbS"--definitional-cnf=24 -s --delete-bad-limit=1024000000 -F1 --simul-paramod -WSelectComplexAHP --split-clauses=4 --split-reuse-defs --forward-context-sr --destructive-er-aggressive --destructive-er -tKBO6 -winvfreqrank -c1 -Ginvfreq --prefer-initial-clauses --tstp-in -H'(10*Refinedweight(PreferGoals,1,2,2,2,0.5),10*Refinedweight(PreferNonGoals,2,1,2,2,2),3*OrientLMaxWeight(ConstPrio,2,1,2,1,1),2*ClauseWeightAge(ConstPrio,1,1,1,3))'"
tRp857
g3
(g9
S'w\xbe\x9f\x1a/Qc@'
tRp858
F166.69
tp859
a(g3
(g4
(S'S10'
I0
I1
tRp860
(I3
S'|'
NNNI10
I1
I0
tbS'RNG109+1.p'
tRp861
g3
(g4
(S'S434'
I0
I1
tRp862
(I3
S'|'
NNNI434
I1
I0
tbS"--definitional-cnf=24 -s --delete-bad-limit=1024000000 -F1 --simul-paramod -WSelectComplexAHP --split-clauses=4 --split-reuse-defs --forward-context-sr --destructive-er-aggressive --destructive-er -tKBO6 -winvfreqrank -c1 -Ginvfreq --prefer-initial-clauses --tstp-in -H'(10*Refinedweight(PreferGoals,1,2,2,2,0.5),10*Refinedweight(PreferNonGoals,2,1,2,2,2),3*OrientLMaxWeight(ConstPrio,2,1,2,1,1),2*ClauseWeightAge(ConstPrio,1,1,1,3))'"
tRp863
g3
(g9
S'y\xe9&1\x08\xb4c@'
tRp864
F188.05000000000001
tp865
a(g3
(g4
(S'S10'
I0
I1
tRp866
(I3
S'|'
NNNI10
I1
I0
tbS'NUM444+6.p'
tRp867
g3
(g4
(S'S434'
I0
I1
tRp868
(I3
S'|'
NNNI434
I1
I0
tbS"--definitional-cnf=24 -s --delete-bad-limit=1024000000 -F1 --simul-paramod -WSelectComplexAHP --split-clauses=4 --split-reuse-defs --forward-context-sr --destructive-er-aggressive --destructive-er -tKBO6 -winvfreqrank -c1 -Ginvfreq --prefer-initial-clauses --tstp-in -H'(10*Refinedweight(PreferGoals,1,2,2,2,0.5),10*Refinedweight(PreferNonGoals,2,1,2,2,2),3*OrientLMaxWeight(ConstPrio,2,1,2,1,1),2*ClauseWeightAge(ConstPrio,1,1,1,3))'"
tRp869
g3
(g9
S'j\xbct\x93\x18tc@'
tRp870
F146.59
tp871
a(g3
(g4
(S'S10'
I0
I1
tRp872
(I3
S'|'
NNNI10
I1
I0
tbS'SEU078+1.p'
tRp873
g3
(g4
(S'S434'
I0
I1
tRp874
(I3
S'|'
NNNI434
I1
I0
tbS"--definitional-cnf=24 -s --delete-bad-limit=1024000000 -F1 --simul-paramod -WSelectComplexAHP --split-clauses=4 --split-reuse-defs --forward-context-sr --destructive-er-aggressive --destructive-er -tKBO6 -winvfreqrank -c1 -Ginvfreq --prefer-initial-clauses --tstp-in -H'(10*Refinedweight(PreferGoals,1,2,2,2,0.5),10*Refinedweight(PreferNonGoals,2,1,2,2,2),3*OrientLMaxWeight(ConstPrio,2,1,2,1,1),2*ClauseWeightAge(ConstPrio,1,1,1,3))'"
tRp875
g3
(g9
S'm\xe7\xfb\xa9\xf1\xd2\x03@'
tRp876
F2.8900000000000001
tp877
a(g3
(g4
(S'S10'
I0
I1
tRp878
(I3
S'|'
NNNI10
I1
I0
tbS'SWC083+1.p'
tRp879
g3
(g4
(S'S434'
I0
I1
tRp880
(I3
S'|'
NNNI434
I1
I0
tbS"--definitional-cnf=24 -s --delete-bad-limit=1024000000 -F1 --simul-paramod -WSelectComplexAHP --split-clauses=4 --split-reuse-defs --forward-context-sr --destructive-er-aggressive --destructive-er -tKBO6 -winvfreqrank -c1 -Ginvfreq --prefer-initial-clauses --tstp-in -H'(10*Refinedweight(PreferGoals,1,2,2,2,0.5),10*Refinedweight(PreferNonGoals,2,1,2,2,2),3*OrientLMaxWeight(ConstPrio,2,1,2,1,1),2*ClauseWeightAge(ConstPrio,1,1,1,3))'"
tRp881
g3
(g9
S'\xa2E\xb6\xf3\xfd\xd4\xf2?'
tRp882
F1.3799999999999999
tp883
a(g3
(g4
(S'S10'
I0
I1
tRp884
(I3
S'|'
NNNI10
I1
I0
tbS'SET108-7.p'
tRp885
g3
(g4
(S'S434'
I0
I1
tRp886
(I3
S'|'
NNNI434
I1
I0
tbS"--definitional-cnf=24 -s --delete-bad-limit=1024000000 -F1 --simul-paramod -WSelectComplexAHP --split-clauses=4 --split-reuse-defs --forward-context-sr --destructive-er-aggressive --destructive-er -tKBO6 -winvfreqrank -c1 -Ginvfreq --prefer-initial-clauses --tstp-in -H'(10*Refinedweight(PreferGoals,1,2,2,2,0.5),10*Refinedweight(PreferNonGoals,2,1,2,2,2),3*OrientLMaxWeight(ConstPrio,2,1,2,1,1),2*ClauseWeightAge(ConstPrio,1,1,1,3))'"
tRp887
g3
(g9
S'\xd5x\xe9&1\x88\x1c@'
tRp888
F8.8399999999999999
tp889
a(g3
(g4
(S'S10'
I0
I1
tRp890
(I3
S'|'
NNNI10
I1
I0
tbS'SET607+3.p'
tRp891
g3
(g4
(S'S434'
I0
I1
tRp892
(I3
S'|'
NNNI434
I1
I0
tbS"--definitional-cnf=24 -s --delete-bad-limit=1024000000 -F1 --simul-paramod -WSelectComplexAHP --split-clauses=4 --split-reuse-defs --forward-context-sr --destructive-er-aggressive --destructive-er -tKBO6 -winvfreqrank -c1 -Ginvfreq --prefer-initial-clauses --tstp-in -H'(10*Refinedweight(PreferGoals,1,2,2,2,0.5),10*Refinedweight(PreferNonGoals,2,1,2,2,2),3*OrientLMaxWeight(ConstPrio,2,1,2,1,1),2*ClauseWeightAge(ConstPrio,1,1,1,3))'"
tRp893
g3
(g9
S'`\xe5\xd0"\xdb\x11p@'
tRp894
F301.81
tp895
a(g3
(g4
(S'S10'
I0
I1
tRp896
(I3
S'|'
NNNI10
I1
I0
tbS'HAL001+2.p'
tRp897
g3
(g4
(S'S434'
I0
I1
tRp898
(I3
S'|'
NNNI434
I1
I0
tbS"--definitional-cnf=24 -s --delete-bad-limit=1024000000 -F1 --simul-paramod -WSelectComplexAHP --split-clauses=4 --split-reuse-defs --forward-context-sr --destructive-er-aggressive --destructive-er -tKBO6 -winvfreqrank -c1 -Ginvfreq --prefer-initial-clauses --tstp-in -H'(10*Refinedweight(PreferGoals,1,2,2,2,0.5),10*Refinedweight(PreferNonGoals,2,1,2,2,2),3*OrientLMaxWeight(ConstPrio,2,1,2,1,1),2*ClauseWeightAge(ConstPrio,1,1,1,3))'"
tRp899
g3
(g9
S'\x87\x16\xd9\xce\xf7\xd3q@'
tRp900
F328.29000000000002
tp901
a(g3
(g4
(S'S10'
I0
I1
tRp902
(I3
S'|'
NNNI10
I1
I0
tbS'FLD060-1.p'
tRp903
g3
(g4
(S'S434'
I0
I1
tRp904
(I3
S'|'
NNNI434
I1
I0
tbS"--definitional-cnf=24 -s --delete-bad-limit=1024000000 -F1 --simul-paramod -WSelectComplexAHP --split-clauses=4 --split-reuse-defs --forward-context-sr --destructive-er-aggressive --destructive-er -tKBO6 -winvfreqrank -c1 -Ginvfreq --prefer-initial-clauses --tstp-in -H'(10*Refinedweight(PreferGoals,1,2,2,2,0.5),10*Refinedweight(PreferNonGoals,2,1,2,2,2),3*OrientLMaxWeight(ConstPrio,2,1,2,1,1),2*ClauseWeightAge(ConstPrio,1,1,1,3))'"
tRp905
g3
(g9
S'\x12\x83\xc0\xca\xa1\x15p@'
tRp906
F217.75
tp907
a(g3
(g4
(S'S10'
I0
I1
tRp908
(I3
S'|'
NNNI10
I1
I0
tbS'SWC400+1.p'
tRp909
g3
(g4
(S'S434'
I0
I1
tRp910
(I3
S'|'
NNNI434
I1
I0
tbS"--definitional-cnf=24 -s --delete-bad-limit=1024000000 -F1 --simul-paramod -WSelectComplexAHP --split-clauses=4 --split-reuse-defs --forward-context-sr --destructive-er-aggressive --destructive-er -tKBO6 -winvfreqrank -c1 -Ginvfreq --prefer-initial-clauses --tstp-in -H'(10*Refinedweight(PreferGoals,1,2,2,2,0.5),10*Refinedweight(PreferNonGoals,2,1,2,2,2),3*OrientLMaxWeight(ConstPrio,2,1,2,1,1),2*ClauseWeightAge(ConstPrio,1,1,1,3))'"
tRp911
g3
(g9
S'\xbe\x9f\x1a/\xdd b@'
tRp912
F167.78999999999999
tp913
a(g3
(g4
(S'S10'
I0
I1
tRp914
(I3
S'|'
NNNI10
I1
I0
tbS'SYN474-1.p'
tRp915
g3
(g4
(S'S434'
I0
I1
tRp916
(I3
S'|'
NNNI434
I1
I0
tbS"--definitional-cnf=24 -s --delete-bad-limit=1024000000 -F1 --simul-paramod -WSelectComplexAHP --split-clauses=4 --split-reuse-defs --forward-context-sr --destructive-er-aggressive --destructive-er -tKBO6 -winvfreqrank -c1 -Ginvfreq --prefer-initial-clauses --tstp-in -H'(10*Refinedweight(PreferGoals,1,2,2,2,0.5),10*Refinedweight(PreferNonGoals,2,1,2,2,2),3*OrientLMaxWeight(ConstPrio,2,1,2,1,1),2*ClauseWeightAge(ConstPrio,1,1,1,3))'"
tRp917
g3
(g9
S'\x14\xaeG\xe1z,]@'
tRp918
F163.87
tp919
a(g3
(g4
(S'S10'
I0
I1
tRp920
(I3
S'|'
NNNI10
I1
I0
tbS'SYN468-1.p'
tRp921
g3
(g4
(S'S434'
I0
I1
tRp922
(I3
S'|'
NNNI434
I1
I0
tbS"--definitional-cnf=24 -s --delete-bad-limit=1024000000 -F1 --simul-paramod -WSelectComplexAHP --split-clauses=4 --split-reuse-defs --forward-context-sr --destructive-er-aggressive --destructive-er -tKBO6 -winvfreqrank -c1 -Ginvfreq --prefer-initial-clauses --tstp-in -H'(10*Refinedweight(PreferGoals,1,2,2,2,0.5),10*Refinedweight(PreferNonGoals,2,1,2,2,2),3*OrientLMaxWeight(ConstPrio,2,1,2,1,1),2*ClauseWeightAge(ConstPrio,1,1,1,3))'"
tRp923
g3
(g9
S'\x00\x00\x00\x00\x00\xf0^@'
tRp924
F192.34
tp925
a(g3
(g4
(S'S10'
I0
I1
tRp926
(I3
S'|'
NNNI10
I1
I0
tbS'LCL224-1.p'
tRp927
g3
(g4
(S'S434'
I0
I1
tRp928
(I3
S'|'
NNNI434
I1
I0
tbS"--definitional-cnf=24 -s --delete-bad-limit=1024000000 -F1 --simul-paramod -WSelectComplexAHP --split-clauses=4 --split-reuse-defs --forward-context-sr --destructive-er-aggressive --destructive-er -tKBO6 -winvfreqrank -c1 -Ginvfreq --prefer-initial-clauses --tstp-in -H'(10*Refinedweight(PreferGoals,1,2,2,2,0.5),10*Refinedweight(PreferNonGoals,2,1,2,2,2),3*OrientLMaxWeight(ConstPrio,2,1,2,1,1),2*ClauseWeightAge(ConstPrio,1,1,1,3))'"
tRp929
g3
(g9
S'o\x12\x83\xc0\xca\xb9m@'
tRp930
F283.67000000000002
tp931
a(g3
(g4
(S'S10'
I0
I1
tRp932
(I3
S'|'
NNNI10
I1
I0
tbS'CSR038+3.p'
tRp933
g3
(g4
(S'S434'
I0
I1
tRp934
(I3
S'|'
NNNI434
I1
I0
tbS"--definitional-cnf=24 -s --delete-bad-limit=1024000000 -F1 --simul-paramod -WSelectComplexAHP --split-clauses=4 --split-reuse-defs --forward-context-sr --destructive-er-aggressive --destructive-er -tKBO6 -winvfreqrank -c1 -Ginvfreq --prefer-initial-clauses --tstp-in -H'(10*Refinedweight(PreferGoals,1,2,2,2,0.5),10*Refinedweight(PreferNonGoals,2,1,2,2,2),3*OrientLMaxWeight(ConstPrio,2,1,2,1,1),2*ClauseWeightAge(ConstPrio,1,1,1,3))'"
tRp935
g3
(g9
S'\xe1z\x14\xaeGUl@'
tRp936
F277.18000000000001
tp937
a(g3
(g4
(S'S10'
I0
I1
tRp938
(I3
S'|'
NNNI10
I1
I0
tbS'GRA002+2.p'
tRp939
g3
(g4
(S'S434'
I0
I1
tRp940
(I3
S'|'
NNNI434
I1
I0
tbS"--definitional-cnf=24 -s --delete-bad-limit=1024000000 -F1 --simul-paramod -WSelectComplexAHP --split-clauses=4 --split-reuse-defs --forward-context-sr --destructive-er-aggressive --destructive-er -tKBO6 -winvfreqrank -c1 -Ginvfreq --prefer-initial-clauses --tstp-in -H'(10*Refinedweight(PreferGoals,1,2,2,2,0.5),10*Refinedweight(PreferNonGoals,2,1,2,2,2),3*OrientLMaxWeight(ConstPrio,2,1,2,1,1),2*ClauseWeightAge(ConstPrio,1,1,1,3))'"
tRp941
g3
(g9
S'\x17\xd9\xce\xf7SKm@'
tRp942
F274.05000000000001
tp943
a(g3
(g4
(S'S10'
I0
I1
tRp944
(I3
S'|'
NNNI10
I1
I0
tbS'SYN484-1.p'
tRp945
g3
(g4
(S'S434'
I0
I1
tRp946
(I3
S'|'
NNNI434
I1
I0
tbS"--definitional-cnf=24 -s --delete-bad-limit=1024000000 -F1 --simul-paramod -WSelectComplexAHP --split-clauses=4 --split-reuse-defs --forward-context-sr --destructive-er-aggressive --destructive-er -tKBO6 -winvfreqrank -c1 -Ginvfreq --prefer-initial-clauses --tstp-in -H'(10*Refinedweight(PreferGoals,1,2,2,2,0.5),10*Refinedweight(PreferNonGoals,2,1,2,2,2),3*OrientLMaxWeight(ConstPrio,2,1,2,1,1),2*ClauseWeightAge(ConstPrio,1,1,1,3))'"
tRp947
g3
(g9
S'\xcd\xcc\xcc\xcc\xcc<@@'
tRp948
F41.469999999999999
tp949
a(g3
(g4
(S'S10'
I0
I1
tRp950
(I3
S'|'
NNNI10
I1
I0
tbS'SWV757-1.p'
tRp951
g3
(g4
(S'S434'
I0
I1
tRp952
(I3
S'|'
NNNI434
I1
I0
tbS"--definitional-cnf=24 -s --delete-bad-limit=1024000000 -F1 --simul-paramod -WSelectComplexAHP --split-clauses=4 --split-reuse-defs --forward-context-sr --destructive-er-aggressive --destructive-er -tKBO6 -winvfreqrank -c1 -Ginvfreq --prefer-initial-clauses --tstp-in -H'(10*Refinedweight(PreferGoals,1,2,2,2,0.5),10*Refinedweight(PreferNonGoals,2,1,2,2,2),3*OrientLMaxWeight(ConstPrio,2,1,2,1,1),2*ClauseWeightAge(ConstPrio,1,1,1,3))'"
tRp953
g3
(g9
S'b\x10X9\xb4\x88F@'
tRp954
F55.229999999999997
tp955
a(g3
(g4
(S'S10'
I0
I1
tRp956
(I3
S'|'
NNNI10
I1
I0
tbS'NUM622+1.p'
tRp957
g3
(g4
(S'S434'
I0
I1
tRp958
(I3
S'|'
NNNI434
I1
I0
tbS"--definitional-cnf=24 -s --delete-bad-limit=1024000000 -F1 --simul-paramod -WSelectComplexAHP --split-clauses=4 --split-reuse-defs --forward-context-sr --destructive-er-aggressive --destructive-er -tKBO6 -winvfreqrank -c1 -Ginvfreq --prefer-initial-clauses --tstp-in -H'(10*Refinedweight(PreferGoals,1,2,2,2,0.5),10*Refinedweight(PreferNonGoals,2,1,2,2,2),3*OrientLMaxWeight(ConstPrio,2,1,2,1,1),2*ClauseWeightAge(ConstPrio,1,1,1,3))'"
tRp959
g3
(g9
S'\xbe\x9f\x1a/\xdd\xd4C@'
tRp960
F52.130000000000003
tp961
a(g3
(g4
(S'S10'
I0
I1
tRp962
(I3
S'|'
NNNI10
I1
I0
tbS'CSR085+3.p'
tRp963
g3
(g4
(S'S434'
I0
I1
tRp964
(I3
S'|'
NNNI434
I1
I0
tbS"--definitional-cnf=24 -s --delete-bad-limit=1024000000 -F1 --simul-paramod -WSelectComplexAHP --split-clauses=4 --split-reuse-defs --forward-context-sr --destructive-er-aggressive --destructive-er -tKBO6 -winvfreqrank -c1 -Ginvfreq --prefer-initial-clauses --tstp-in -H'(10*Refinedweight(PreferGoals,1,2,2,2,0.5),10*Refinedweight(PreferNonGoals,2,1,2,2,2),3*OrientLMaxWeight(ConstPrio,2,1,2,1,1),2*ClauseWeightAge(ConstPrio,1,1,1,3))'"
tRp965
g3
(g9
S'\xf0\xa7\xc6K7\xc94@'
tRp966
F23.260000000000002
tp967
a(g3
(g4
(S'S10'
I0
I1
tRp968
(I3
S'|'
NNNI10
I1
I0
tbS'LCL524+1.p'
tRp969
g3
(g4
(S'S434'
I0
I1
tRp970
(I3
S'|'
NNNI434
I1
I0
tbS"--definitional-cnf=24 -s --delete-bad-limit=1024000000 -F1 --simul-paramod -WSelectComplexAHP --split-clauses=4 --split-reuse-defs --forward-context-sr --destructive-er-aggressive --destructive-er -tKBO6 -winvfreqrank -c1 -Ginvfreq --prefer-initial-clauses --tstp-in -H'(10*Refinedweight(PreferGoals,1,2,2,2,0.5),10*Refinedweight(PreferNonGoals,2,1,2,2,2),3*OrientLMaxWeight(ConstPrio,2,1,2,1,1),2*ClauseWeightAge(ConstPrio,1,1,1,3))'"
tRp971
g3
(g9
S'\x85\xebQ\xb8\x1e\x05.@'
tRp972
F15.65
tp973
a(g3
(g4
(S'S10'
I0
I1
tRp974
(I3
S'|'
NNNI10
I1
I0
tbS'SEU383+1.p'
tRp975
g3
(g4
(S'S434'
I0
I1
tRp976
(I3
S'|'
NNNI434
I1
I0
tbS"--definitional-cnf=24 -s --delete-bad-limit=1024000000 -F1 --simul-paramod -WSelectComplexAHP --split-clauses=4 --split-reuse-defs --forward-context-sr --destructive-er-aggressive --destructive-er -tKBO6 -winvfreqrank -c1 -Ginvfreq --prefer-initial-clauses --tstp-in -H'(10*Refinedweight(PreferGoals,1,2,2,2,0.5),10*Refinedweight(PreferNonGoals,2,1,2,2,2),3*OrientLMaxWeight(ConstPrio,2,1,2,1,1),2*ClauseWeightAge(ConstPrio,1,1,1,3))'"
tRp977
g3
(g9
S'\x7fj\xbct\x93X1@'
tRp978
F23.109999999999999
tp979
a(g3
(g4
(S'S10'
I0
I1
tRp980
(I3
S'|'
NNNI10
I1
I0
tbS'RNG062+2.p'
tRp981
g3
(g4
(S'S430'
I0
I1
tRp982
(I3
S'|'
NNNI430
I1
I0
tbS"--definitional-cnf=24 -s --delete-bad-limit=1024000000 --simul-paramod -F1 -WSelectNewComplexAHP --forward-context-sr --split-aggressive --split-clauses=8 --split-reuse-defs --destructive-er-aggressive --destructive-er -tKBO6 -winvfreqrank -c1 -Ginvfreq --tstp-in -H'(10*PNRefinedweight(PreferGoals,1,1,1,2,2,2,0.5),10*PNRefinedweight(PreferNonGoals,2,1,1,1,2,2,2),5*OrientLMaxWeight(ConstPrio,2,1,2,1,1),1*FIFOWeight(ConstPrio))'"
tRp983
g3
(g9
S'\xd9\xce\xf7S\xe3\xa5\xef?'
tRp984
F1.2
tp985
a(g3
(g4
(S'S10'
I0
I1
tRp986
(I3
S'|'
NNNI10
I1
I0
tbS'NUM612+3.p'
tRp987
g3
(g4
(S'S430'
I0
I1
tRp988
(I3
S'|'
NNNI430
I1
I0
tbS"--definitional-cnf=24 -s --delete-bad-limit=1024000000 --simul-paramod -F1 -WSelectNewComplexAHP --forward-context-sr --split-aggressive --split-clauses=8 --split-reuse-defs --destructive-er-aggressive --destructive-er -tKBO6 -winvfreqrank -c1 -Ginvfreq --tstp-in -H'(10*PNRefinedweight(PreferGoals,1,1,1,2,2,2,0.5),10*PNRefinedweight(PreferNonGoals,2,1,1,1,2,2,2),5*OrientLMaxWeight(ConstPrio,2,1,2,1,1),1*FIFOWeight(ConstPrio))'"
tRp989
g3
(g9
S"'1\x08\xac\x1cZ\xe0?"
tRp990
F0.56000000000000005
tp991
a(g3
(g4
(S'S10'
I0
I1
tRp992
(I3
S'|'
NNNI10
I1
I0
tbS'NUM451+6.p'
tRp993
g3
(g4
(S'S430'
I0
I1
tRp994
(I3
S'|'
NNNI430
I1
I0
tbS"--definitional-cnf=24 -s --delete-bad-limit=1024000000 --simul-paramod -F1 -WSelectNewComplexAHP --forward-context-sr --split-aggressive --split-clauses=8 --split-reuse-defs --destructive-er-aggressive --destructive-er -tKBO6 -winvfreqrank -c1 -Ginvfreq --tstp-in -H'(10*PNRefinedweight(PreferGoals,1,1,1,2,2,2,0.5),10*PNRefinedweight(PreferNonGoals,2,1,1,1,2,2,2),5*OrientLMaxWeight(ConstPrio,2,1,2,1,1),1*FIFOWeight(ConstPrio))'"
tRp995
g3
(g9
S'b\x10X9\xb4\xc8\xe2?'
tRp996
F1.04
tp997
a(g3
(g4
(S'S10'
I0
I1
tRp998
(I3
S'|'
NNNI10
I1
I0
tbS'SWV814-1.p'
tRp999
g3
(g4
(S'S430'
I0
I1
tRp1000
(I3
S'|'
NNNI430
I1
I0
tbS"--definitional-cnf=24 -s --delete-bad-limit=1024000000 --simul-paramod -F1 -WSelectNewComplexAHP --forward-context-sr --split-aggressive --split-clauses=8 --split-reuse-defs --destructive-er-aggressive --destructive-er -tKBO6 -winvfreqrank -c1 -Ginvfreq --tstp-in -H'(10*PNRefinedweight(PreferGoals,1,1,1,2,2,2,0.5),10*PNRefinedweight(PreferNonGoals,2,1,1,1,2,2,2),5*OrientLMaxWeight(ConstPrio,2,1,2,1,1),1*FIFOWeight(ConstPrio))'"
tRp1001
g3
(g9
S'}?5^\xbaYV@'
tRp1002
F115.73
tp1003
a(g3
(g4
(S'S10'
I0
I1
tRp1004
(I3
S'|'
NNNI10
I1
I0
tbS'HWV003-1.p'
tRp1005
g3
(g4
(S'S430'
I0
I1
tRp1006
(I3
S'|'
NNNI430
I1
I0
tbS"--definitional-cnf=24 -s --delete-bad-limit=1024000000 --simul-paramod -F1 -WSelectNewComplexAHP --forward-context-sr --split-aggressive --split-clauses=8 --split-reuse-defs --destructive-er-aggressive --destructive-er -tKBO6 -winvfreqrank -c1 -Ginvfreq --tstp-in -H'(10*PNRefinedweight(PreferGoals,1,1,1,2,2,2,0.5),10*PNRefinedweight(PreferNonGoals,2,1,1,1,2,2,2),5*OrientLMaxWeight(ConstPrio,2,1,2,1,1),1*FIFOWeight(ConstPrio))'"
tRp1007
g3
(g9
S'\x89A`\xe5\xd0\xd2R@'
tRp1008
F101.20999999999999
tp1009
a(g3
(g4
(S'S10'
I0
I1
tRp1010
(I3
S'|'
NNNI10
I1
I0
tbS'SWV792-1.p'
tRp1011
g3
(g4
(S'S430'
I0
I1
tRp1012
(I3
S'|'
NNNI430
I1
I0
tbS"--definitional-cnf=24 -s --delete-bad-limit=1024000000 --simul-paramod -F1 -WSelectNewComplexAHP --forward-context-sr --split-aggressive --split-clauses=8 --split-reuse-defs --destructive-er-aggressive --destructive-er -tKBO6 -winvfreqrank -c1 -Ginvfreq --tstp-in -H'(10*PNRefinedweight(PreferGoals,1,1,1,2,2,2,0.5),10*PNRefinedweight(PreferNonGoals,2,1,1,1,2,2,2),5*OrientLMaxWeight(ConstPrio,2,1,2,1,1),1*FIFOWeight(ConstPrio))'"
tRp1013
g3
(g9
S'm\xe7\xfb\xa9\xf1\xcaV@'
tRp1014
F107.56999999999999
tp1015
a(g3
(g4
(S'S10'
I0
I1
tRp1016
(I3
S'|'
NNNI10
I1
I0
tbS'PRO003+2.p'
tRp1017
g3
(g4
(S'S430'
I0
I1
tRp1018
(I3
S'|'
NNNI430
I1
I0
tbS"--definitional-cnf=24 -s --delete-bad-limit=1024000000 --simul-paramod -F1 -WSelectNewComplexAHP --forward-context-sr --split-aggressive --split-clauses=8 --split-reuse-defs --destructive-er-aggressive --destructive-er -tKBO6 -winvfreqrank -c1 -Ginvfreq --tstp-in -H'(10*PNRefinedweight(PreferGoals,1,1,1,2,2,2,0.5),10*PNRefinedweight(PreferNonGoals,2,1,1,1,2,2,2),5*OrientLMaxWeight(ConstPrio,2,1,2,1,1),1*FIFOWeight(ConstPrio))'"
tRp1019
g3
(g9
S'\xf8S\xe3\xa5\x9b\x04c@'
tRp1020
F307.45999999999998
tp1021
a(g3
(g4
(S'S10'
I0
I1
tRp1022
(I3
S'|'
NNNI10
I1
I0
tbS'CSR098+6.p'
tRp1023
g3
(g4
(S'S430'
I0
I1
tRp1024
(I3
S'|'
NNNI430
I1
I0
tbS"--definitional-cnf=24 -s --delete-bad-limit=1024000000 --simul-paramod -F1 -WSelectNewComplexAHP --forward-context-sr --split-aggressive --split-clauses=8 --split-reuse-defs --destructive-er-aggressive --destructive-er -tKBO6 -winvfreqrank -c1 -Ginvfreq --tstp-in -H'(10*PNRefinedweight(PreferGoals,1,1,1,2,2,2,0.5),10*PNRefinedweight(PreferNonGoals,2,1,1,1,2,2,2),5*OrientLMaxWeight(ConstPrio,2,1,2,1,1),1*FIFOWeight(ConstPrio))'"
tRp1025
g3
(g9
S'\xaa\xf1\xd2Mb\xdcd@'
tRp1026
F191.53999999999999
tp1027
a(g3
(g4
(S'S10'
I0
I1
tRp1028
(I3
S'|'
NNNI10
I1
I0
tbS'CSR098+7.p'
tRp1029
g3
(g4
(S'S430'
I0
I1
tRp1030
(I3
S'|'
NNNI430
I1
I0
tbS"--definitional-cnf=24 -s --delete-bad-limit=1024000000 --simul-paramod -F1 -WSelectNewComplexAHP --forward-context-sr --split-aggressive --split-clauses=8 --split-reuse-defs --destructive-er-aggressive --destructive-er -tKBO6 -winvfreqrank -c1 -Ginvfreq --tstp-in -H'(10*PNRefinedweight(PreferGoals,1,1,1,2,2,2,0.5),10*PNRefinedweight(PreferNonGoals,2,1,1,1,2,2,2),5*OrientLMaxWeight(ConstPrio,2,1,2,1,1),1*FIFOWeight(ConstPrio))'"
tRp1031
g3
(g9
S'w\xbe\x9f\x1a/md@'
tRp1032
F204.65000000000001
tp1033
a(g3
(g4
(S'S10'
I0
I1
tRp1034
(I3
S'|'
NNNI10
I1
I0
tbS'GRP102-1.p'
tRp1035
g3
(g4
(S'S430'
I0
I1
tRp1036
(I3
S'|'
NNNI430
I1
I0
tbS"--definitional-cnf=24 -s --delete-bad-limit=1024000000 --simul-paramod -F1 -WSelectNewComplexAHP --forward-context-sr --split-aggressive --split-clauses=8 --split-reuse-defs --destructive-er-aggressive --destructive-er -tKBO6 -winvfreqrank -c1 -Ginvfreq --tstp-in -H'(10*PNRefinedweight(PreferGoals,1,1,1,2,2,2,0.5),10*PNRefinedweight(PreferNonGoals,2,1,1,1,2,2,2),5*OrientLMaxWeight(ConstPrio,2,1,2,1,1),1*FIFOWeight(ConstPrio))'"
tRp1037
g3
(g9
S'Zd;\xdfO\x8d\xf1?'
tRp1038
F2.1400000000000001
tp1039
a(g3
(g4
(S'S10'
I0
I1
tRp1040
(I3
S'|'
NNNI10
I1
I0
tbS'GRP655+3.p'
tRp1041
g3
(g4
(S'S430'
I0
I1
tRp1042
(I3
S'|'
NNNI430
I1
I0
tbS"--definitional-cnf=24 -s --delete-bad-limit=1024000000 --simul-paramod -F1 -WSelectNewComplexAHP --forward-context-sr --split-aggressive --split-clauses=8 --split-reuse-defs --destructive-er-aggressive --destructive-er -tKBO6 -winvfreqrank -c1 -Ginvfreq --tstp-in -H'(10*PNRefinedweight(PreferGoals,1,1,1,2,2,2,0.5),10*PNRefinedweight(PreferNonGoals,2,1,1,1,2,2,2),5*OrientLMaxWeight(ConstPrio,2,1,2,1,1),1*FIFOWeight(ConstPrio))'"
tRp1043
g3
(g9
S'\x17\xd9\xce\xf7S\xe3!@'
tRp1044
F11.369999999999999
tp1045
a(g3
(g4
(S'S10'
I0
I1
tRp1046
(I3
S'|'
NNNI10
I1
I0
tbS'COL057-1.p'
tRp1047
g3
(g4
(S'S430'
I0
I1
tRp1048
(I3
S'|'
NNNI430
I1
I0
tbS"--definitional-cnf=24 -s --delete-bad-limit=1024000000 --simul-paramod -F1 -WSelectNewComplexAHP --forward-context-sr --split-aggressive --split-clauses=8 --split-reuse-defs --destructive-er-aggressive --destructive-er -tKBO6 -winvfreqrank -c1 -Ginvfreq --tstp-in -H'(10*PNRefinedweight(PreferGoals,1,1,1,2,2,2,0.5),10*PNRefinedweight(PreferNonGoals,2,1,1,1,2,2,2),5*OrientLMaxWeight(ConstPrio,2,1,2,1,1),1*FIFOWeight(ConstPrio))'"
tRp1049
g3
(g9
S'\x98n\x12\x83\xc0\xca\xfb?'
tRp1050
F1.8500000000000001
tp1051
a(g3
(g4
(S'S10'
I0
I1
tRp1052
(I3
S'|'
NNNI10
I1
I0
tbS'AGT005+1.p'
tRp1053
g3
(g4
(S'S430'
I0
I1
tRp1054
(I3
S'|'
NNNI430
I1
I0
tbS"--definitional-cnf=24 -s --delete-bad-limit=1024000000 --simul-paramod -F1 -WSelectNewComplexAHP --forward-context-sr --split-aggressive --split-clauses=8 --split-reuse-defs --destructive-er-aggressive --destructive-er -tKBO6 -winvfreqrank -c1 -Ginvfreq --tstp-in -H'(10*PNRefinedweight(PreferGoals,1,1,1,2,2,2,0.5),10*PNRefinedweight(PreferNonGoals,2,1,1,1,2,2,2),5*OrientLMaxWeight(ConstPrio,2,1,2,1,1),1*FIFOWeight(ConstPrio))'"
tRp1055
g3
(g9
S'q=\n\xd7\xa3`r@'
tRp1056
F328.83999999999997
tp1057
a(g3
(g4
(S'S10'
I0
I1
tRp1058
(I3
S'|'
NNNI10
I1
I0
tbS'KLE046+1.p'
tRp1059
g3
(g4
(S'S430'
I0
I1
tRp1060
(I3
S'|'
NNNI430
I1
I0
tbS"--definitional-cnf=24 -s --delete-bad-limit=1024000000 --simul-paramod -F1 -WSelectNewComplexAHP --forward-context-sr --split-aggressive --split-clauses=8 --split-reuse-defs --destructive-er-aggressive --destructive-er -tKBO6 -winvfreqrank -c1 -Ginvfreq --tstp-in -H'(10*PNRefinedweight(PreferGoals,1,1,1,2,2,2,0.5),10*PNRefinedweight(PreferNonGoals,2,1,1,1,2,2,2),5*OrientLMaxWeight(ConstPrio,2,1,2,1,1),1*FIFOWeight(ConstPrio))'"
tRp1061
g3
(g9
S'\xdfO\x8d\x97n\x88q@'
tRp1062
F152.22999999999999
tp1063
a(g3
(g4
(S'S10'
I0
I1
tRp1064
(I3
S'|'
NNNI10
I1
I0
tbS'NUM329+1.p'
tRp1065
g3
(g4
(S'S430'
I0
I1
tRp1066
(I3
S'|'
NNNI430
I1
I0
tbS"--definitional-cnf=24 -s --delete-bad-limit=1024000000 --simul-paramod -F1 -WSelectNewComplexAHP --forward-context-sr --split-aggressive --split-clauses=8 --split-reuse-defs --destructive-er-aggressive --destructive-er -tKBO6 -winvfreqrank -c1 -Ginvfreq --tstp-in -H'(10*PNRefinedweight(PreferGoals,1,1,1,2,2,2,0.5),10*PNRefinedweight(PreferNonGoals,2,1,1,1,2,2,2),5*OrientLMaxWeight(ConstPrio,2,1,2,1,1),1*FIFOWeight(ConstPrio))'"
tRp1067
g3
(g9
S'X9\xb4\xc8v\x02p@'
tRp1068
F300.02999999999997
tp1069
a(g3
(g4
(S'S10'
I0
I1
tRp1070
(I3
S'|'
NNNI10
I1
I0
tbS'CSR118+4.p'
tRp1071
g3
(g4
(S'S430'
I0
I1
tRp1072
(I3
S'|'
NNNI430
I1
I0
tbS"--definitional-cnf=24 -s --delete-bad-limit=1024000000 --simul-paramod -F1 -WSelectNewComplexAHP --forward-context-sr --split-aggressive --split-clauses=8 --split-reuse-defs --destructive-er-aggressive --destructive-er -tKBO6 -winvfreqrank -c1 -Ginvfreq --tstp-in -H'(10*PNRefinedweight(PreferGoals,1,1,1,2,2,2,0.5),10*PNRefinedweight(PreferNonGoals,2,1,1,1,2,2,2),5*OrientLMaxWeight(ConstPrio,2,1,2,1,1),1*FIFOWeight(ConstPrio))'"
tRp1073
g3
(g9
S'\x0c\x02+\x87\x16\x89]@'
tRp1074
F175.97999999999999
tp1075
a(g3
(g4
(S'S18'
I0
I1
tRp1076
(I3
S'|'
NNNI18
I1
I0
tbS'NUM378+1.015.020.p'
tRp1077
g3
(g4
(S'S430'
I0
I1
tRp1078
(I3
S'|'
NNNI430
I1
I0
tbS"--definitional-cnf=24 -s --delete-bad-limit=1024000000 --simul-paramod -F1 -WSelectNewComplexAHP --forward-context-sr --split-aggressive --split-clauses=8 --split-reuse-defs --destructive-er-aggressive --destructive-er -tKBO6 -winvfreqrank -c1 -Ginvfreq --tstp-in -H'(10*PNRefinedweight(PreferGoals,1,1,1,2,2,2,0.5),10*PNRefinedweight(PreferNonGoals,2,1,1,1,2,2,2),5*OrientLMaxWeight(ConstPrio,2,1,2,1,1),1*FIFOWeight(ConstPrio))'"
tRp1079
g3
(g9
S'\x85\xebQ\xb8\x1e\xcdZ@'
tRp1080
F120.51000000000001
tp1081
a(g3
(g4
(S'S10'
I0
I1
tRp1082
(I3
S'|'
NNNI10
I1
I0
tbS'CSR085+6.p'
tRp1083
g3
(g4
(S'S430'
I0
I1
tRp1084
(I3
S'|'
NNNI430
I1
I0
tbS"--definitional-cnf=24 -s --delete-bad-limit=1024000000 --simul-paramod -F1 -WSelectNewComplexAHP --forward-context-sr --split-aggressive --split-clauses=8 --split-reuse-defs --destructive-er-aggressive --destructive-er -tKBO6 -winvfreqrank -c1 -Ginvfreq --tstp-in -H'(10*PNRefinedweight(PreferGoals,1,1,1,2,2,2,0.5),10*PNRefinedweight(PreferNonGoals,2,1,1,1,2,2,2),5*OrientLMaxWeight(ConstPrio,2,1,2,1,1),1*FIFOWeight(ConstPrio))'"
tRp1085
g3
(g9
S'B`\xe5\xd0"\xffa@'
tRp1086
F177.63999999999999
tp1087
a(g3
(g4
(S'S10'
I0
I1
tRp1088
(I3
S'|'
NNNI10
I1
I0
tbS'SEU162+2.p'
tRp1089
g3
(g4
(S'S430'
I0
I1
tRp1090
(I3
S'|'
NNNI430
I1
I0
tbS"--definitional-cnf=24 -s --delete-bad-limit=1024000000 --simul-paramod -F1 -WSelectNewComplexAHP --forward-context-sr --split-aggressive --split-clauses=8 --split-reuse-defs --destructive-er-aggressive --destructive-er -tKBO6 -winvfreqrank -c1 -Ginvfreq --tstp-in -H'(10*PNRefinedweight(PreferGoals,1,1,1,2,2,2,0.5),10*PNRefinedweight(PreferNonGoals,2,1,1,1,2,2,2),5*OrientLMaxWeight(ConstPrio,2,1,2,1,1),1*FIFOWeight(ConstPrio))'"
tRp1091
g3
(g9
S'\xf4\xfd\xd4x\xe9Ri@'
tRp1092
F235.75
tp1093
a(g3
(g4
(S'S10'
I0
I1
tRp1094
(I3
S'|'
NNNI10
I1
I0
tbS'GEO270+1.p'
tRp1095
g3
(g4
(S'S430'
I0
I1
tRp1096
(I3
S'|'
NNNI430
I1
I0
tbS"--definitional-cnf=24 -s --delete-bad-limit=1024000000 --simul-paramod -F1 -WSelectNewComplexAHP --forward-context-sr --split-aggressive --split-clauses=8 --split-reuse-defs --destructive-er-aggressive --destructive-er -tKBO6 -winvfreqrank -c1 -Ginvfreq --tstp-in -H'(10*PNRefinedweight(PreferGoals,1,1,1,2,2,2,0.5),10*PNRefinedweight(PreferNonGoals,2,1,1,1,2,2,2),5*OrientLMaxWeight(ConstPrio,2,1,2,1,1),1*FIFOWeight(ConstPrio))'"
tRp1097
g3
(g9
S'\x06\x81\x95C\x8b\xb0m@'
tRp1098
F239.78999999999999
tp1099
a(g3
(g4
(S'S10'
I0
I1
tRp1100
(I3
S'|'
NNNI10
I1
I0
tbS'GRP663-1.p'
tRp1101
g3
(g4
(S'S430'
I0
I1
tRp1102
(I3
S'|'
NNNI430
I1
I0
tbS"--definitional-cnf=24 -s --delete-bad-limit=1024000000 --simul-paramod -F1 -WSelectNewComplexAHP --forward-context-sr --split-aggressive --split-clauses=8 --split-reuse-defs --destructive-er-aggressive --destructive-er -tKBO6 -winvfreqrank -c1 -Ginvfreq --tstp-in -H'(10*PNRefinedweight(PreferGoals,1,1,1,2,2,2,0.5),10*PNRefinedweight(PreferNonGoals,2,1,1,1,2,2,2),5*OrientLMaxWeight(ConstPrio,2,1,2,1,1),1*FIFOWeight(ConstPrio))'"
tRp1103
g3
(g9
S'\x83\xc0\xca\xa1E\x9an@'
tRp1104
F305.73000000000002
tp1105
a(g3
(g4
(S'S10'
I0
I1
tRp1106
(I3
S'|'
NNNI10
I1
I0
tbS'CSR099+4.p'
tRp1107
g3
(g4
(S'S430'
I0
I1
tRp1108
(I3
S'|'
NNNI430
I1
I0
tbS"--definitional-cnf=24 -s --delete-bad-limit=1024000000 --simul-paramod -F1 -WSelectNewComplexAHP --forward-context-sr --split-aggressive --split-clauses=8 --split-reuse-defs --destructive-er-aggressive --destructive-er -tKBO6 -winvfreqrank -c1 -Ginvfreq --tstp-in -H'(10*PNRefinedweight(PreferGoals,1,1,1,2,2,2,0.5),10*PNRefinedweight(PreferNonGoals,2,1,1,1,2,2,2),5*OrientLMaxWeight(ConstPrio,2,1,2,1,1),1*FIFOWeight(ConstPrio))'"
tRp1109
g3
(g9
S'\x89A`\xe5\xd0\xf2A@'
tRp1110
F69.5
tp1111
a(g3
(g4
(S'S10'
I0
I1
tRp1112
(I3
S'|'
NNNI10
I1
I0
tbS'SET584+3.p'
tRp1113
g3
(g4
(S'S430'
I0
I1
tRp1114
(I3
S'|'
NNNI430
I1
I0
tbS"--definitional-cnf=24 -s --delete-bad-limit=1024000000 --simul-paramod -F1 -WSelectNewComplexAHP --forward-context-sr --split-aggressive --split-clauses=8 --split-reuse-defs --destructive-er-aggressive --destructive-er -tKBO6 -winvfreqrank -c1 -Ginvfreq --tstp-in -H'(10*PNRefinedweight(PreferGoals,1,1,1,2,2,2,0.5),10*PNRefinedweight(PreferNonGoals,2,1,1,1,2,2,2),5*OrientLMaxWeight(ConstPrio,2,1,2,1,1),1*FIFOWeight(ConstPrio))'"
tRp1115
g3
(g9
S'%\x06\x81\x95C\xebA@'
tRp1116
F41.109999999999999
tp1117
a(g3
(g4
(S'S10'
I0
I1
tRp1118
(I3
S'|'
NNNI10
I1
I0
tbS'ALG145+1.p'
tRp1119
g3
(g4
(S'S430'
I0
I1
tRp1120
(I3
S'|'
NNNI430
I1
I0
tbS"--definitional-cnf=24 -s --delete-bad-limit=1024000000 --simul-paramod -F1 -WSelectNewComplexAHP --forward-context-sr --split-aggressive --split-clauses=8 --split-reuse-defs --destructive-er-aggressive --destructive-er -tKBO6 -winvfreqrank -c1 -Ginvfreq --tstp-in -H'(10*PNRefinedweight(PreferGoals,1,1,1,2,2,2,0.5),10*PNRefinedweight(PreferNonGoals,2,1,1,1,2,2,2),5*OrientLMaxWeight(ConstPrio,2,1,2,1,1),1*FIFOWeight(ConstPrio))'"
tRp1121
g3
(g9
S'\xb0rh\x91\xed\x9cE@'
tRp1122
F56.560000000000002
tp1123
a(g3
(g4
(S'S10'
I0
I1
tRp1124
(I3
S'|'
NNNI10
I1
I0
tbS'SWV415+1.p'
tRp1125
g3
(g4
(S'S430'
I0
I1
tRp1126
(I3
S'|'
NNNI430
I1
I0
tbS"--definitional-cnf=24 -s --delete-bad-limit=1024000000 --simul-paramod -F1 -WSelectNewComplexAHP --forward-context-sr --split-aggressive --split-clauses=8 --split-reuse-defs --destructive-er-aggressive --destructive-er -tKBO6 -winvfreqrank -c1 -Ginvfreq --tstp-in -H'(10*PNRefinedweight(PreferGoals,1,1,1,2,2,2,0.5),10*PNRefinedweight(PreferNonGoals,2,1,1,1,2,2,2),5*OrientLMaxWeight(ConstPrio,2,1,2,1,1),1*FIFOWeight(ConstPrio))'"
tRp1127
g3
(g9
S'\x91\xed|?5\x1e)@'
tRp1128
F22.41
tp1129
a(g3
(g4
(S'S10'
I0
I1
tRp1130
(I3
S'|'
NNNI10
I1
I0
tbS'SWC225+1.p'
tRp1131
g3
(g4
(S'S430'
I0
I1
tRp1132
(I3
S'|'
NNNI430
I1
I0
tbS"--definitional-cnf=24 -s --delete-bad-limit=1024000000 --simul-paramod -F1 -WSelectNewComplexAHP --forward-context-sr --split-aggressive --split-clauses=8 --split-reuse-defs --destructive-er-aggressive --destructive-er -tKBO6 -winvfreqrank -c1 -Ginvfreq --tstp-in -H'(10*PNRefinedweight(PreferGoals,1,1,1,2,2,2,0.5),10*PNRefinedweight(PreferNonGoals,2,1,1,1,2,2,2),5*OrientLMaxWeight(ConstPrio,2,1,2,1,1),1*FIFOWeight(ConstPrio))'"
tRp1133
g3
(g9
S'\x17\xd9\xce\xf7Sc;@'
tRp1134
F41.420000000000002
tp1135
a(g3
(g4
(S'S10'
I0
I1
tRp1136
(I3
S'|'
NNNI10
I1
I0
tbS'SWC393+1.p'
tRp1137
g3
(g4
(S'S430'
I0
I1
tRp1138
(I3
S'|'
NNNI430
I1
I0
tbS"--definitional-cnf=24 -s --delete-bad-limit=1024000000 --simul-paramod -F1 -WSelectNewComplexAHP --forward-context-sr --split-aggressive --split-clauses=8 --split-reuse-defs --destructive-er-aggressive --destructive-er -tKBO6 -winvfreqrank -c1 -Ginvfreq --tstp-in -H'(10*PNRefinedweight(PreferGoals,1,1,1,2,2,2,0.5),10*PNRefinedweight(PreferNonGoals,2,1,1,1,2,2,2),5*OrientLMaxWeight(ConstPrio,2,1,2,1,1),1*FIFOWeight(ConstPrio))'"
tRp1139
g3
(g9
S'1\x08\xac\x1cZ\xa43@'
tRp1140
F32.329999999999998
tp1141
a(g3
(g4
(S'S10'
I0
I1
tRp1142
(I3
S'|'
NNNI10
I1
I0
tbS'SYN553-1.p'
tRp1143
g3
(g4
(S'S454'
I0
I1
tRp1144
(I3
S'|'
NNNI454
I1
I0
tbS"--definitional-cnf=24 --tstp-in --presat-simplify --split-reuse-defs --split-clauses=4 --simul-paramod --forward-context-sr --destructive-er-aggressive --destructive-er --prefer-initial-clauses -tKBO6 -winvfreqrank -c1 -Ginvfreqconjmax -F1 -s --delete-bad-limit=1024000000 -WSelectNewComplexAHPNS -H'(20*ConjectureRelativeSymbolWeight(ConstPrio,0.1, 100, 100, 100, 100, 1.5, 1.5, 1.5),1*Refinedweight(PreferNonGoals,2,1,2,3,0.8),1*FIFOWeight(ConstPrio))'"
tRp1145
g3
(g9
S'`\xe5\xd0"\xdb\xf9\xe2?'
tRp1146
F0.72999999999999998
tp1147
a(g3
(g4
(S'S10'
I0
I1
tRp1148
(I3
S'|'
NNNI10
I1
I0
tbS'ANA013-1.p'
tRp1149
g3
(g4
(S'S454'
I0
I1
tRp1150
(I3
S'|'
NNNI454
I1
I0
tbS"--definitional-cnf=24 --tstp-in --presat-simplify --split-reuse-defs --split-clauses=4 --simul-paramod --forward-context-sr --destructive-er-aggressive --destructive-er --prefer-initial-clauses -tKBO6 -winvfreqrank -c1 -Ginvfreqconjmax -F1 -s --delete-bad-limit=1024000000 -WSelectNewComplexAHPNS -H'(20*ConjectureRelativeSymbolWeight(ConstPrio,0.1, 100, 100, 100, 100, 1.5, 1.5, 1.5),1*Refinedweight(PreferNonGoals,2,1,2,3,0.8),1*FIFOWeight(ConstPrio))'"
tRp1151
g3
(g9
S'\xb6\xf3\xfd\xd4x\xe9\xea?'
tRp1152
F1.22
tp1153
a(g3
(g4
(S'S10'
I0
I1
tRp1154
(I3
S'|'
NNNI10
I1
I0
tbS'ALG032+1.p'
tRp1155
g3
(g4
(S'S454'
I0
I1
tRp1156
(I3
S'|'
NNNI454
I1
I0
tbS"--definitional-cnf=24 --tstp-in --presat-simplify --split-reuse-defs --split-clauses=4 --simul-paramod --forward-context-sr --destructive-er-aggressive --destructive-er --prefer-initial-clauses -tKBO6 -winvfreqrank -c1 -Ginvfreqconjmax -F1 -s --delete-bad-limit=1024000000 -WSelectNewComplexAHPNS -H'(20*ConjectureRelativeSymbolWeight(ConstPrio,0.1, 100, 100, 100, 100, 1.5, 1.5, 1.5),1*Refinedweight(PreferNonGoals,2,1,2,3,0.8),1*FIFOWeight(ConstPrio))'"
tRp1157
g3
(g9
S'd;\xdfO\x8d\x97\xe6?'
tRp1158
F0.81999999999999995
tp1159
a(g3
(g4
(S'S10'
I0
I1
tRp1160
(I3
S'|'
NNNI10
I1
I0
tbS'MGT046-1.p'
tRp1161
g3
(g4
(S'S454'
I0
I1
tRp1162
(I3
S'|'
NNNI454
I1
I0
tbS"--definitional-cnf=24 --tstp-in --presat-simplify --split-reuse-defs --split-clauses=4 --simul-paramod --forward-context-sr --destructive-er-aggressive --destructive-er --prefer-initial-clauses -tKBO6 -winvfreqrank -c1 -Ginvfreqconjmax -F1 -s --delete-bad-limit=1024000000 -WSelectNewComplexAHPNS -H'(20*ConjectureRelativeSymbolWeight(ConstPrio,0.1, 100, 100, 100, 100, 1.5, 1.5, 1.5),1*Refinedweight(PreferNonGoals,2,1,2,3,0.8),1*FIFOWeight(ConstPrio))'"
tRp1163
g3
(g9
S'=\n\xd7\xa3p\xd5V@'
tRp1164
F101.73999999999999
tp1165
a(g3
(g4
(S'S10'
I0
I1
tRp1166
(I3
S'|'
NNNI10
I1
I0
tbS'SWV277-1.p'
tRp1167
g3
(g4
(S'S454'
I0
I1
tRp1168
(I3
S'|'
NNNI454
I1
I0
tbS"--definitional-cnf=24 --tstp-in --presat-simplify --split-reuse-defs --split-clauses=4 --simul-paramod --forward-context-sr --destructive-er-aggressive --destructive-er --prefer-initial-clauses -tKBO6 -winvfreqrank -c1 -Ginvfreqconjmax -F1 -s --delete-bad-limit=1024000000 -WSelectNewComplexAHPNS -H'(20*ConjectureRelativeSymbolWeight(ConstPrio,0.1, 100, 100, 100, 100, 1.5, 1.5, 1.5),1*Refinedweight(PreferNonGoals,2,1,2,3,0.8),1*FIFOWeight(ConstPrio))'"
tRp1169
g3
(g9
S'H\xe1z\x14\xae\x1fS@'
tRp1170
F115.09999999999999
tp1171
a(g3
(g4
(S'S10'
I0
I1
tRp1172
(I3
S'|'
NNNI10
I1
I0
tbS'GEO053-2.p'
tRp1173
g3
(g4
(S'S454'
I0
I1
tRp1174
(I3
S'|'
NNNI454
I1
I0
tbS"--definitional-cnf=24 --tstp-in --presat-simplify --split-reuse-defs --split-clauses=4 --simul-paramod --forward-context-sr --destructive-er-aggressive --destructive-er --prefer-initial-clauses -tKBO6 -winvfreqrank -c1 -Ginvfreqconjmax -F1 -s --delete-bad-limit=1024000000 -WSelectNewComplexAHPNS -H'(20*ConjectureRelativeSymbolWeight(ConstPrio,0.1, 100, 100, 100, 100, 1.5, 1.5, 1.5),1*Refinedweight(PreferNonGoals,2,1,2,3,0.8),1*FIFOWeight(ConstPrio))'"
tRp1175
g3
(g9
S'Nb\x10X9\x04W@'
tRp1176
F110.08
tp1177
a(g3
(g4
(S'S10'
I0
I1
tRp1178
(I3
S'|'
NNNI10
I1
I0
tbS'NUM513+3.p'
tRp1179
g3
(g4
(S'S454'
I0
I1
tRp1180
(I3
S'|'
NNNI454
I1
I0
tbS"--definitional-cnf=24 --tstp-in --presat-simplify --split-reuse-defs --split-clauses=4 --simul-paramod --forward-context-sr --destructive-er-aggressive --destructive-er --prefer-initial-clauses -tKBO6 -winvfreqrank -c1 -Ginvfreqconjmax -F1 -s --delete-bad-limit=1024000000 -WSelectNewComplexAHPNS -H'(20*ConjectureRelativeSymbolWeight(ConstPrio,0.1, 100, 100, 100, 100, 1.5, 1.5, 1.5),1*Refinedweight(PreferNonGoals,2,1,2,3,0.8),1*FIFOWeight(ConstPrio))'"
tRp1181
g3
(g9
S'P\x8d\x97n\x12\xabc@'
tRp1182
F236.09
tp1183
a(g3
(g4
(S'S10'
I0
I1
tRp1184
(I3
S'|'
NNNI10
I1
I0
tbS'NUM340+1.p'
tRp1185
g3
(g4
(S'S454'
I0
I1
tRp1186
(I3
S'|'
NNNI454
I1
I0
tbS"--definitional-cnf=24 --tstp-in --presat-simplify --split-reuse-defs --split-clauses=4 --simul-paramod --forward-context-sr --destructive-er-aggressive --destructive-er --prefer-initial-clauses -tKBO6 -winvfreqrank -c1 -Ginvfreqconjmax -F1 -s --delete-bad-limit=1024000000 -WSelectNewComplexAHPNS -H'(20*ConjectureRelativeSymbolWeight(ConstPrio,0.1, 100, 100, 100, 100, 1.5, 1.5, 1.5),1*Refinedweight(PreferNonGoals,2,1,2,3,0.8),1*FIFOWeight(ConstPrio))'"
tRp1187
g3
(g9
S'%\x06\x81\x95C\xf7h@'
tRp1188
F204.03999999999999
tp1189
a(g3
(g4
(S'S10'
I0
I1
tRp1190
(I3
S'|'
NNNI10
I1
I0
tbS'SEU034+1.p'
tRp1191
g3
(g4
(S'S454'
I0
I1
tRp1192
(I3
S'|'
NNNI454
I1
I0
tbS"--definitional-cnf=24 --tstp-in --presat-simplify --split-reuse-defs --split-clauses=4 --simul-paramod --forward-context-sr --destructive-er-aggressive --destructive-er --prefer-initial-clauses -tKBO6 -winvfreqrank -c1 -Ginvfreqconjmax -F1 -s --delete-bad-limit=1024000000 -WSelectNewComplexAHPNS -H'(20*ConjectureRelativeSymbolWeight(ConstPrio,0.1, 100, 100, 100, 100, 1.5, 1.5, 1.5),1*Refinedweight(PreferNonGoals,2,1,2,3,0.8),1*FIFOWeight(ConstPrio))'"
tRp1193
g3
(g9
S'\xd3Mb\x10X\xade@'
tRp1194
F183.49000000000001
tp1195
a(g3
(g4
(S'S10'
I0
I1
tRp1196
(I3
S'|'
NNNI10
I1
I0
tbS'SWB065+1.p'
tRp1197
g3
(g4
(S'S454'
I0
I1
tRp1198
(I3
S'|'
NNNI454
I1
I0
tbS"--definitional-cnf=24 --tstp-in --presat-simplify --split-reuse-defs --split-clauses=4 --simul-paramod --forward-context-sr --destructive-er-aggressive --destructive-er --prefer-initial-clauses -tKBO6 -winvfreqrank -c1 -Ginvfreqconjmax -F1 -s --delete-bad-limit=1024000000 -WSelectNewComplexAHPNS -H'(20*ConjectureRelativeSymbolWeight(ConstPrio,0.1, 100, 100, 100, 100, 1.5, 1.5, 1.5),1*Refinedweight(PreferNonGoals,2,1,2,3,0.8),1*FIFOWeight(ConstPrio))'"
tRp1199
g3
(g9
S'\xd1"\xdb\xf9~\xaa!@'
tRp1200
F14.220000000000001
tp1201
a(g3
(g4
(S'S10'
I0
I1
tRp1202
(I3
S'|'
NNNI10
I1
I0
tbS'CSR083+2.p'
tRp1203
g3
(g4
(S'S454'
I0
I1
tRp1204
(I3
S'|'
NNNI454
I1
I0
tbS"--definitional-cnf=24 --tstp-in --presat-simplify --split-reuse-defs --split-clauses=4 --simul-paramod --forward-context-sr --destructive-er-aggressive --destructive-er --prefer-initial-clauses -tKBO6 -winvfreqrank -c1 -Ginvfreqconjmax -F1 -s --delete-bad-limit=1024000000 -WSelectNewComplexAHPNS -H'(20*ConjectureRelativeSymbolWeight(ConstPrio,0.1, 100, 100, 100, 100, 1.5, 1.5, 1.5),1*Refinedweight(PreferNonGoals,2,1,2,3,0.8),1*FIFOWeight(ConstPrio))'"
tRp1205
g3
(g9
S'\x14\xaeG\xe1z\x94\x1c@'
tRp1206
F9.7799999999999994
tp1207
a(g3
(g4
(S'S10'
I0
I1
tRp1208
(I3
S'|'
NNNI10
I1
I0
tbS'NUM049-1.p'
tRp1209
g3
(g4
(S'S454'
I0
I1
tRp1210
(I3
S'|'
NNNI454
I1
I0
tbS"--definitional-cnf=24 --tstp-in --presat-simplify --split-reuse-defs --split-clauses=4 --simul-paramod --forward-context-sr --destructive-er-aggressive --destructive-er --prefer-initial-clauses -tKBO6 -winvfreqrank -c1 -Ginvfreqconjmax -F1 -s --delete-bad-limit=1024000000 -WSelectNewComplexAHPNS -H'(20*ConjectureRelativeSymbolWeight(ConstPrio,0.1, 100, 100, 100, 100, 1.5, 1.5, 1.5),1*Refinedweight(PreferNonGoals,2,1,2,3,0.8),1*FIFOWeight(ConstPrio))'"
tRp1211
g3
(g9
S'\x1dZd;\xdf\xcf\x15@'
tRp1212
F7.2699999999999996
tp1213
a(g3
(g4
(S'S10'
I0
I1
tRp1214
(I3
S'|'
NNNI10
I1
I0
tbS'CSR100+2.p'
tRp1215
g3
(g4
(S'S454'
I0
I1
tRp1216
(I3
S'|'
NNNI454
I1
I0
tbS"--definitional-cnf=24 --tstp-in --presat-simplify --split-reuse-defs --split-clauses=4 --simul-paramod --forward-context-sr --destructive-er-aggressive --destructive-er --prefer-initial-clauses -tKBO6 -winvfreqrank -c1 -Ginvfreqconjmax -F1 -s --delete-bad-limit=1024000000 -WSelectNewComplexAHPNS -H'(20*ConjectureRelativeSymbolWeight(ConstPrio,0.1, 100, 100, 100, 100, 1.5, 1.5, 1.5),1*Refinedweight(PreferNonGoals,2,1,2,3,0.8),1*FIFOWeight(ConstPrio))'"
tRp1217
g3
(g9
S'J\x0c\x02+\x87Rp@'
tRp1218
F196.16
tp1219
a(g3
(g4
(S'S10'
I0
I1
tRp1220
(I3
S'|'
NNNI10
I1
I0
tbS'NUM346+1.p'
tRp1221
g3
(g4
(S'S454'
I0
I1
tRp1222
(I3
S'|'
NNNI454
I1
I0
tbS"--definitional-cnf=24 --tstp-in --presat-simplify --split-reuse-defs --split-clauses=4 --simul-paramod --forward-context-sr --destructive-er-aggressive --destructive-er --prefer-initial-clauses -tKBO6 -winvfreqrank -c1 -Ginvfreqconjmax -F1 -s --delete-bad-limit=1024000000 -WSelectNewComplexAHPNS -H'(20*ConjectureRelativeSymbolWeight(ConstPrio,0.1, 100, 100, 100, 100, 1.5, 1.5, 1.5),1*Refinedweight(PreferNonGoals,2,1,2,3,0.8),1*FIFOWeight(ConstPrio))'"
tRp1223
g3
(g9
S'\xa4p=\n\xd71q@'
tRp1224
F237.15000000000001
tp1225
a(g3
(g4
(S'S10'
I0
I1
tRp1226
(I3
S'|'
NNNI10
I1
I0
tbS'RNG035-7.p'
tRp1227
g3
(g4
(S'S454'
I0
I1
tRp1228
(I3
S'|'
NNNI454
I1
I0
tbS"--definitional-cnf=24 --tstp-in --presat-simplify --split-reuse-defs --split-clauses=4 --simul-paramod --forward-context-sr --destructive-er-aggressive --destructive-er --prefer-initial-clauses -tKBO6 -winvfreqrank -c1 -Ginvfreqconjmax -F1 -s --delete-bad-limit=1024000000 -WSelectNewComplexAHPNS -H'(20*ConjectureRelativeSymbolWeight(ConstPrio,0.1, 100, 100, 100, 100, 1.5, 1.5, 1.5),1*Refinedweight(PreferNonGoals,2,1,2,3,0.8),1*FIFOWeight(ConstPrio))'"
tRp1229
g3
(g9
S'/\xdd$\x06\x81\x8dq@'
tRp1230
F288.44
tp1231
a(g3
(g4
(S'S10'
I0
I1
tRp1232
(I3
S'|'
NNNI10
I1
I0
tbS'CSR052+4.p'
tRp1233
g3
(g4
(S'S454'
I0
I1
tRp1234
(I3
S'|'
NNNI454
I1
I0
tbS"--definitional-cnf=24 --tstp-in --presat-simplify --split-reuse-defs --split-clauses=4 --simul-paramod --forward-context-sr --destructive-er-aggressive --destructive-er --prefer-initial-clauses -tKBO6 -winvfreqrank -c1 -Ginvfreqconjmax -F1 -s --delete-bad-limit=1024000000 -WSelectNewComplexAHPNS -H'(20*ConjectureRelativeSymbolWeight(ConstPrio,0.1, 100, 100, 100, 100, 1.5, 1.5, 1.5),1*Refinedweight(PreferNonGoals,2,1,2,3,0.8),1*FIFOWeight(ConstPrio))'"
tRp1235
g3
(g9
S'F\xb6\xf3\xfd\xd4\xf8^@'
tRp1236
F94.310000000000002
tp1237
a(g3
(g4
(S'S10'
I0
I1
tRp1238
(I3
S'|'
NNNI10
I1
I0
tbS'SWC084-1.p'
tRp1239
g3
(g4
(S'S454'
I0
I1
tRp1240
(I3
S'|'
NNNI454
I1
I0
tbS"--definitional-cnf=24 --tstp-in --presat-simplify --split-reuse-defs --split-clauses=4 --simul-paramod --forward-context-sr --destructive-er-aggressive --destructive-er --prefer-initial-clauses -tKBO6 -winvfreqrank -c1 -Ginvfreqconjmax -F1 -s --delete-bad-limit=1024000000 -WSelectNewComplexAHPNS -H'(20*ConjectureRelativeSymbolWeight(ConstPrio,0.1, 100, 100, 100, 100, 1.5, 1.5, 1.5),1*Refinedweight(PreferNonGoals,2,1,2,3,0.8),1*FIFOWeight(ConstPrio))'"
tRp1241
g3
(g9
S'\xdb\xf9~j\xbc\x1c[@'
tRp1242
F158.12
tp1243
a(g3
(g4
(S'S10'
I0
I1
tRp1244
(I3
S'|'
NNNI10
I1
I0
tbS'NUM344+1.p'
tRp1245
g3
(g4
(S'S454'
I0
I1
tRp1246
(I3
S'|'
NNNI454
I1
I0
tbS"--definitional-cnf=24 --tstp-in --presat-simplify --split-reuse-defs --split-clauses=4 --simul-paramod --forward-context-sr --destructive-er-aggressive --destructive-er --prefer-initial-clauses -tKBO6 -winvfreqrank -c1 -Ginvfreqconjmax -F1 -s --delete-bad-limit=1024000000 -WSelectNewComplexAHPNS -H'(20*ConjectureRelativeSymbolWeight(ConstPrio,0.1, 100, 100, 100, 100, 1.5, 1.5, 1.5),1*Refinedweight(PreferNonGoals,2,1,2,3,0.8),1*FIFOWeight(ConstPrio))'"
tRp1247
g3
(g9
S'\x1dZd;\xdf\x0f`@'
tRp1248
F123.26000000000001
tp1249
a(g3
(g4
(S'S10'
I0
I1
tRp1250
(I3
S'|'
NNNI10
I1
I0
tbS'NUM327+1.p'
tRp1251
g3
(g4
(S'S454'
I0
I1
tRp1252
(I3
S'|'
NNNI454
I1
I0
tbS"--definitional-cnf=24 --tstp-in --presat-simplify --split-reuse-defs --split-clauses=4 --simul-paramod --forward-context-sr --destructive-er-aggressive --destructive-er --prefer-initial-clauses -tKBO6 -winvfreqrank -c1 -Ginvfreqconjmax -F1 -s --delete-bad-limit=1024000000 -WSelectNewComplexAHPNS -H'(20*ConjectureRelativeSymbolWeight(ConstPrio,0.1, 100, 100, 100, 100, 1.5, 1.5, 1.5),1*Refinedweight(PreferNonGoals,2,1,2,3,0.8),1*FIFOWeight(ConstPrio))'"
tRp1253
g3
(g9
S'\x08\xac\x1cZd\x13k@'
tRp1254
F199.93000000000001
tp1255
a(g3
(g4
(S'S10'
I0
I1
tRp1256
(I3
S'|'
NNNI10
I1
I0
tbS'CSR108+2.p'
tRp1257
g3
(g4
(S'S454'
I0
I1
tRp1258
(I3
S'|'
NNNI454
I1
I0
tbS"--definitional-cnf=24 --tstp-in --presat-simplify --split-reuse-defs --split-clauses=4 --simul-paramod --forward-context-sr --destructive-er-aggressive --destructive-er --prefer-initial-clauses -tKBO6 -winvfreqrank -c1 -Ginvfreqconjmax -F1 -s --delete-bad-limit=1024000000 -WSelectNewComplexAHPNS -H'(20*ConjectureRelativeSymbolWeight(ConstPrio,0.1, 100, 100, 100, 100, 1.5, 1.5, 1.5),1*Refinedweight(PreferNonGoals,2,1,2,3,0.8),1*FIFOWeight(ConstPrio))'"
tRp1259
g3
(g9
S'u\x93\x18\x04V\xfal@'
tRp1260
F212.21000000000001
tp1261
a(g3
(g4
(S'S10'
I0
I1
tRp1262
(I3
S'|'
NNNI10
I1
I0
tbS'SET144-6.p'
tRp1263
g3
(g4
(S'S454'
I0
I1
tRp1264
(I3
S'|'
NNNI454
I1
I0
tbS"--definitional-cnf=24 --tstp-in --presat-simplify --split-reuse-defs --split-clauses=4 --simul-paramod --forward-context-sr --destructive-er-aggressive --destructive-er --prefer-initial-clauses -tKBO6 -winvfreqrank -c1 -Ginvfreqconjmax -F1 -s --delete-bad-limit=1024000000 -WSelectNewComplexAHPNS -H'(20*ConjectureRelativeSymbolWeight(ConstPrio,0.1, 100, 100, 100, 100, 1.5, 1.5, 1.5),1*Refinedweight(PreferNonGoals,2,1,2,3,0.8),1*FIFOWeight(ConstPrio))'"
tRp1265
g3
(g9
S'\x1dZd;\xdf7i@'
tRp1266
F215.40000000000001
tp1267
a(g3
(g4
(S'S10'
I0
I1
tRp1268
(I3
S'|'
NNNI10
I1
I0
tbS'CSR055+4.p'
tRp1269
g3
(g4
(S'S454'
I0
I1
tRp1270
(I3
S'|'
NNNI454
I1
I0
tbS"--definitional-cnf=24 --tstp-in --presat-simplify --split-reuse-defs --split-clauses=4 --simul-paramod --forward-context-sr --destructive-er-aggressive --destructive-er --prefer-initial-clauses -tKBO6 -winvfreqrank -c1 -Ginvfreqconjmax -F1 -s --delete-bad-limit=1024000000 -WSelectNewComplexAHPNS -H'(20*ConjectureRelativeSymbolWeight(ConstPrio,0.1, 100, 100, 100, 100, 1.5, 1.5, 1.5),1*Refinedweight(PreferNonGoals,2,1,2,3,0.8),1*FIFOWeight(ConstPrio))'"
tRp1271
g3
(g9
S'\xf2\xd2Mb\x10\xd8?@'
tRp1272
F30.68
tp1273
a(g3
(g4
(S'S10'
I0
I1
tRp1274
(I3
S'|'
NNNI10
I1
I0
tbS'CSR056+4.p'
tRp1275
g3
(g4
(S'S454'
I0
I1
tRp1276
(I3
S'|'
NNNI454
I1
I0
tbS"--definitional-cnf=24 --tstp-in --presat-simplify --split-reuse-defs --split-clauses=4 --simul-paramod --forward-context-sr --destructive-er-aggressive --destructive-er --prefer-initial-clauses -tKBO6 -winvfreqrank -c1 -Ginvfreqconjmax -F1 -s --delete-bad-limit=1024000000 -WSelectNewComplexAHPNS -H'(20*ConjectureRelativeSymbolWeight(ConstPrio,0.1, 100, 100, 100, 100, 1.5, 1.5, 1.5),1*Refinedweight(PreferNonGoals,2,1,2,3,0.8),1*FIFOWeight(ConstPrio))'"
tRp1277
g3
(g9
S'#\xdb\xf9~j,A@'
tRp1278
F41.740000000000002
tp1279
a(g3
(g4
(S'S10'
I0
I1
tRp1280
(I3
S'|'
NNNI10
I1
I0
tbS'SET846-1.p'
tRp1281
g3
(g4
(S'S454'
I0
I1
tRp1282
(I3
S'|'
NNNI454
I1
I0
tbS"--definitional-cnf=24 --tstp-in --presat-simplify --split-reuse-defs --split-clauses=4 --simul-paramod --forward-context-sr --destructive-er-aggressive --destructive-er --prefer-initial-clauses -tKBO6 -winvfreqrank -c1 -Ginvfreqconjmax -F1 -s --delete-bad-limit=1024000000 -WSelectNewComplexAHPNS -H'(20*ConjectureRelativeSymbolWeight(ConstPrio,0.1, 100, 100, 100, 100, 1.5, 1.5, 1.5),1*Refinedweight(PreferNonGoals,2,1,2,3,0.8),1*FIFOWeight(ConstPrio))'"
tRp1283
g3
(g9
S'\xdb\xf9~j\xbcdF@'
tRp1284
F59.170000000000002
tp1285
a(g3
(g4
(S'S10'
I0
I1
tRp1286
(I3
S'|'
NNNI10
I1
I0
tbS'SWC093+1.p'
tRp1287
g3
(g4
(S'S454'
I0
I1
tRp1288
(I3
S'|'
NNNI454
I1
I0
tbS"--definitional-cnf=24 --tstp-in --presat-simplify --split-reuse-defs --split-clauses=4 --simul-paramod --forward-context-sr --destructive-er-aggressive --destructive-er --prefer-initial-clauses -tKBO6 -winvfreqrank -c1 -Ginvfreqconjmax -F1 -s --delete-bad-limit=1024000000 -WSelectNewComplexAHPNS -H'(20*ConjectureRelativeSymbolWeight(ConstPrio,0.1, 100, 100, 100, 100, 1.5, 1.5, 1.5),1*Refinedweight(PreferNonGoals,2,1,2,3,0.8),1*FIFOWeight(ConstPrio))'"
tRp1289
g3
(g9
S'\x8d\x97n\x12\x83`7@'
tRp1290
F33.479999999999997
tp1291
a(g3
(g4
(S'S10'
I0
I1
tRp1292
(I3
S'|'
NNNI10
I1
I0
tbS'LAT240-1.p'
tRp1293
g3
(g4
(S'S454'
I0
I1
tRp1294
(I3
S'|'
NNNI454
I1
I0
tbS"--definitional-cnf=24 --tstp-in --presat-simplify --split-reuse-defs --split-clauses=4 --simul-paramod --forward-context-sr --destructive-er-aggressive --destructive-er --prefer-initial-clauses -tKBO6 -winvfreqrank -c1 -Ginvfreqconjmax -F1 -s --delete-bad-limit=1024000000 -WSelectNewComplexAHPNS -H'(20*ConjectureRelativeSymbolWeight(ConstPrio,0.1, 100, 100, 100, 100, 1.5, 1.5, 1.5),1*Refinedweight(PreferNonGoals,2,1,2,3,0.8),1*FIFOWeight(ConstPrio))'"
tRp1295
g3
(g9
S'\x10X9\xb4\xc86:@'
tRp1296
F4.3300000000000001
tp1297
a(g3
(g4
(S'S10'
I0
I1
tRp1298
(I3
S'|'
NNNI10
I1
I0
tbS'SWB031+1.p'
tRp1299
g3
(g4
(S'S454'
I0
I1
tRp1300
(I3
S'|'
NNNI454
I1
I0
tbS"--definitional-cnf=24 --tstp-in --presat-simplify --split-reuse-defs --split-clauses=4 --simul-paramod --forward-context-sr --destructive-er-aggressive --destructive-er --prefer-initial-clauses -tKBO6 -winvfreqrank -c1 -Ginvfreqconjmax -F1 -s --delete-bad-limit=1024000000 -WSelectNewComplexAHPNS -H'(20*ConjectureRelativeSymbolWeight(ConstPrio,0.1, 100, 100, 100, 100, 1.5, 1.5, 1.5),1*Refinedweight(PreferNonGoals,2,1,2,3,0.8),1*FIFOWeight(ConstPrio))'"
tRp1301
g3
(g9
S'm\xe7\xfb\xa9\xf1\x12/@'
tRp1302
F27.75
tp1303
atp1304
a.